
wbsl.elf:     file format elf32-msp430
wbsl.elf
architecture: MSP430X, flags 0x00000112:
EXEC_P, HAS_SYMS, D_PAGED
start address 0x00001e60

Program Header:
    LOAD off    0x00000000 vaddr 0x00001cbc paddr 0x00001cbc align 2**2
         filesz 0x00000e66 memsz 0x00000ee6 flags rwx
    LOAD off    0x00000e66 vaddr 0x0000fffe paddr 0x0000fffe align 2**2
         filesz 0x00000002 memsz 0x00000002 flags r--

Sections:
Idx Name          Size      VMA       LMA       File off  Algn  Flags
  0 __reset_vector 00000002  0000fffe  0000fffe  00000e66  2**0  CONTENTS, ALLOC, LOAD, READONLY, DATA
  1 .rodata       00000130  00001d30  00001d30  00000074  2**2  CONTENTS, ALLOC, LOAD, DATA
  2 .text         00000c8a  00001e60  00001e60  000001a4  2**1  CONTENTS, ALLOC, LOAD, READONLY, CODE
  3 .data         00000038  00002aea  00002aea  00000e2e  2**1  CONTENTS, ALLOC, LOAD, DATA
  4 .bss          0000007c  00002b22  00002b22  00000e66  2**1  ALLOC
  5 .heap         00000004  00002b9e  00002b9e  00000e66  2**0  ALLOC
  6 .MSP430.attributes 00000017  00000000  00000000  00000e68  2**0  CONTENTS, READONLY
  7 .comment      0000007c  00000000  00000000  00000e7f  2**0  CONTENTS, READONLY
  8 .debug_aranges 000002e0  00000000  00000000  00000f00  2**3  CONTENTS, READONLY, DEBUGGING
  9 .debug_info   00001fcd  00000000  00000000  000011e0  2**0  CONTENTS, READONLY, DEBUGGING
 10 .debug_abbrev 00000ac5  00000000  00000000  000031ad  2**0  CONTENTS, READONLY, DEBUGGING
 11 .debug_line   00001c23  00000000  00000000  00003c72  2**0  CONTENTS, DEBUGGING
 12 .debug_frame  00000488  00000000  00000000  00005898  2**2  CONTENTS, READONLY, DEBUGGING
 13 .debug_str    00016177  00000000  00000000  00005d20  2**0  CONTENTS, READONLY, DEBUGGING
 14 .debug_loc    0000122b  00000000  00000000  0001be97  2**0  CONTENTS, READONLY, DEBUGGING
 15 .debug_ranges 000001f0  00000000  00000000  0001d0c8  2**3  CONTENTS, READONLY, DEBUGGING
 16 .debug_macro  00006912  00000000  00000000  0001d2b8  2**0  CONTENTS, READONLY, DEBUGGING
SYMBOL TABLE:
0000fffe l    d  __reset_vector	00000000 __reset_vector
00001d30 l    d  .rodata	00000000 .rodata
00001e60 l    d  .text	00000000 .text
00002aea l    d  .data	00000000 .data
00002b22 l    d  .bss	00000000 .bss
00002b9e l    d  .heap	00000000 .heap
00000000 l    d  .MSP430.attributes	00000000 .MSP430.attributes
00000000 l    d  .comment	00000000 .comment
00000000 l    d  .debug_aranges	00000000 .debug_aranges
00000000 l    d  .debug_info	00000000 .debug_info
00000000 l    d  .debug_abbrev	00000000 .debug_abbrev
00000000 l    d  .debug_line	00000000 .debug_line
00000000 l    d  .debug_frame	00000000 .debug_frame
00000000 l    d  .debug_str	00000000 .debug_str
00000000 l    d  .debug_loc	00000000 .debug_loc
00000000 l    d  .debug_ranges	00000000 .debug_ranges
00000000 l    d  .debug_macro	00000000 .debug_macro
00000000 l    df *ABS*	00000000 /home/dev/ti/gcc/bin/../lib/gcc/msp430-elf/4.9.1/../../../../msp430-elf/lib/crt0.o
0000fffe l       __reset_vector	00000000 __msp430_resetvec_hook
00001eb6 l       .text	00000000 _msp430_run_array
00001ec4 l       .text	00000000 _msp430_run_done
00000000 l       .debug_line	00000000 L0
00001e64 l       .text	00000000 L0
00001ecc l       .text	00000000 L0
00002ae4 l       .text	00000000 L0
00001e60 l       .text	00000000 L0
00001e64 l       .text	00000000 L0
00001e90 l       .text	00000000 L0
00001ecc l       .text	00000000 L0
00002ae0 l       .text	00000000 L0
00002ae4 l       .text	00000000 L0
00000000 l       .debug_aranges	00000000 L0
00001e60 l       .text	00000000 L0
00001e64 l       .text	00000000 L0
00001e90 l       .text	00000000 L0
00001ecc l       .text	00000000 L0
00002ae0 l       .text	00000000 L0
00002ae4 l       .text	00000000 L0
00000000 l       .debug_info	00000000 L0
00000000 l    df *ABS*	00000000 display1.c
00000000 l    df *ABS*	00000000 display.c
00001fb6 l       .text	00000000 L0
00002026 l       .text	00000000 L0
00002064 l       .text	00000000 L0
00002084 l       .text	00000000 L0
00002104 l       .text	00000000 L0
00002138 l       .text	00000000 L0
00002150 l       .text	00000000 L0
00000000 l    df *ABS*	00000000 wbsl.c
0000232e l       .text	00000000 L0
0000233c l       .text	00000000 L0
00002354 l       .text	00000000 L0
00002368 l       .text	00000000 L0
000023ec l       .text	00000000 L0
00002476 l       .text	00000000 L0
0000253e l       .text	00000000 L0
00002564 l       .text	00000000 L0
000025c8 l       .text	00000000 L0
000025e6 l       .text	00000000 L0
000025f6 l       .text	00000000 L0
0000260e l       .text	00000000 L0
000026ae l       .text	00000000 L0
0000271e l       .text	00000000 L0
0000275e l       .text	00000000 L0
000028a2 l       .text	00000000 L0
000029c6 l       .text	00000000 L0
000029fe l       .text	00000000 L0
00000000 l    df *ABS*	00000000 crtstuff.c
00001e58 l     O .rodata	00000000 __CTOR_LIST__
00001e5c l     O .rodata	00000000 __DTOR_LIST__
00001e54 l     O .rodata	00000000 __EH_FRAME_BEGIN__
00002aea l     O .data	00000000 __JCR_LIST__
00002aea l     O .text	00000000 __TMC_LIST__
00001ec6 l       .text	00000000 deregister_tm_clones
00001ee4 l       .text	00000000 register_tm_clones
00001f0e l       .text	00000000 __do_global_dtors_aux
00002b22 l     O .bss	00000001 completed.2761
00002b24 l     O .bss	00000002 dtor_idx.2763
00001f5a l       .text	00000000 call___do_global_dtors_aux
00001f5c l       .text	00000000 frame_dummy
00002b26 l     O .bss	0000000e object.2776
00001f8a l       .text	00000000 call_frame_dummy
00000000 l    df *ABS*	00000000 crtstuff.c
00001e5a l     O .rodata	00000000 __CTOR_END__
00001e54 l     O .rodata	00000000 __FRAME_END__
00002aea l     O .data	00000000 __JCR_END__
00002aae l       .text	00000000 __do_global_ctors_aux
00002acc l       .text	00000000 call___do_global_ctors_aux
00000000 l    df *ABS*	00000000 crt_bss.o
000018ac l       .debug_line	00000000 L0
00001e72 l       .text	00000000 L0
00000238 l       .debug_aranges	00000000 L0
00001e64 l       .text	00000000 L0
00001e72 l       .text	00000000 L0
00001b8b l       .debug_info	00000000 L0
00000000 l    df *ABS*	00000000 crt_movedata.o
00001930 l       .debug_line	00000000 L0
00001e86 l       .text	00000000 L0
00000258 l       .debug_aranges	00000000 L0
00001e72 l       .text	00000000 L0
00001e86 l       .text	00000000 L0
00001c5d l       .debug_info	00000000 L0
00000000 l    df *ABS*	00000000 crt_main.o
000019c0 l       .debug_line	00000000 L0
00001e90 l       .text	00000000 L0
00000278 l       .debug_aranges	00000000 L0
00001e86 l       .text	00000000 L0
00001e90 l       .text	00000000 L0
00001d2f l       .debug_info	00000000 L0
00000000 l    df *ABS*	00000000 radio.c
0000218e l       .text	00000000 L0
0000219e l       .text	00000000 L0
000021c4 l       .text	00000000 L0
00000000 l    df *ABS*	00000000 rf1a.c
000021fe l       .text	00000000 L0
0000223a l       .text	00000000 L0
000022d6 l       .text	00000000 L0
00002322 l       .text	00000000 L0
00000000 l    df *ABS*	00000000 lib2divHI.c
00002a3c l       .text	00000000 L0
00002a40 l       .text	00000000 L0
00000000 l    df *ABS*	00000000 memcpy.c
00002a5e l       .text	00000000 L0
00000000 l    df *ABS*	00000000 memset.c
00002a70 l       .text	00000000 L0
00000000 l    df *ABS*	00000000 memmove.c
00002ab2 l       .text	00000000 L0
00000000 l    df *ABS*	00000000 /home/dev/ti/gcc/bin/../lib/gcc/msp430-elf/4.9.1/../../../../msp430-elf/lib/crtn.o
00001b96 l       .debug_line	00000000 L0
00002ae0 l       .text	00000000 L0
00002aea l       .text	00000000 L0
00002ad6 l       .text	00000000 L0
00002ae0 l       .text	00000000 L0
00002ae8 l       .text	00000000 L0
00002aea l       .text	00000000 L0
000002b8 l       .debug_aranges	00000000 L0
00002ad6 l       .text	00000000 L0
00002ae0 l       .text	00000000 L0
00002ae8 l       .text	00000000 L0
00002aea l       .text	00000000 L0
00001eff l       .debug_info	00000000 L0
00000000 l    df *ABS*	00000000 
00001e60 l       .text	00000000 _start
00001e0c g     O .rodata	0000002b lcd_font
00000f10 g       *ABS*	00000000 RF1AINSTRW_L
00002892 g       .text	00000134 start_wbsl
0000233c g       .text	00000018 wbsl_writeByte
00002a6e g       .text	00000044 memmove
00002470 g       .text	000000ce RadioIsr_wbsl
000029fc g       .text	00000040 .hidden udivmodhi4
00002368 g       .text	00000084 wbsl_writeBytes
00000f30 g       *ABS*	00000000 RF1AIN
00000162 g       *ABS*	00000000 UCSCTL1
00000354 g       *ABS*	00000000 TA0CCR1
0000219e g       .text	00000026 ReceiveOff
000025c8 g       .text	0000001e reset_wbsl
00002a40 g       .text	0000001e memcpy
00002aea g     O .text	00000000 .hidden __TMC_END__
00002b9a g     O .bss	00000004 itoa_str
00001e5e g     O .rodata	00000000 .hidden __DTOR_END__
00001e52 g       .rodata	00000000 __fini_array_end
00000140 g       *ABS*	00000000 FCTL1
0000016c g       *ABS*	00000000 UCSCTL6
0000015c g       *ABS*	00000000 WDTCTL
00002354 g       .text	00000014 wbsl_writeWord
00001e60 g     F .text	00000004 __crt0_start
00000a04 g       *ABS*	00000000 LCDBBLKCTL
00002ba2 g       .heap	00000000 __HeapLimit
00002ba2 g       .heap	00000000 __heap_end__
0000201e g       .text	00000046 itoa
00001e64 g     F .text	0000000e __crt0_init_bss
00002b3d g     O .bss	00000001 wbslMode_flag
00000164 g       *ABS*	00000000 UCSCTL2
0000007c g       *ABS*	00000000 __bsssize
00001e86 g     F .text	0000000a __crt0_call_init_then_main
00002084 g       .text	00000080 display_char
00002b14 g     O .data	00000006 ackReply
0000275e g       .text	00000144 wbsl_receivePackets
0000271a g       .text	00000044 wbsl_replyAck
00000350 g       *ABS*	00000000 TA0R
00000f20 g       *ABS*	00000000 RF1ASTAT0W_L
000021c4 g       .text	0000003a ReadSingleReg
00002536 g       .text	0000002e massEraseFlash
00000f32 g       *ABS*	00000000 RF1AIFG
00000160 g       *ABS*	00000000 UCSCTL0
00000a00 g       *ABS*	00000000 LCDBCTL0
00000166 g       *ABS*	00000000 UCSCTL3
00002b3c g     O .bss	00000001 rxtx_flag
000026aa g       .text	00000074 wbsl_link
00002b3e g     O .bss	00000001 wbsl_flag
0000016e g       *ABS*	00000000 UCSCTL7
00002b3b g     O .bss	00000001 wbsl_progress
00000000  w      *UND*	00000000 __deregister_frame_info
00002b9e g       .heap	00000000 end
00000102 g       *ABS*	00000000 SFRIFG1
00000000  w      *UND*	00000000 _ITM_registerTMCloneTable
00002b42 g     O .bss	00000001 RxBufferLength
00002b1a g     O .data	00000008 discoveryReply
00001ea8 g     F .text	00000000 _msp430_run_fini_array
00002064 g       .text	00000020 display_symbol
00000f21 g       *ABS*	00000000 RF1ASTAT0W_H
00000038 g       *ABS*	00000000 __romdatacopysize
000025f6 g       .text	00000018 wbsl_setTimer
00002136 g       .text	0000001a clear_display
00000f34 g       *ABS*	00000000 RF1AIES
00002100 g       .text	00000038 display_chars
00002b3a g     O .bss	00000001 AP_address
00000000  w      *UND*	00000000 _ITM_deregisterTMCloneTable
00002b38 g     O .bss	00000001 initOk
00001e52 g       .rodata	00000000 __fini_array_start
000025e6 g       .text	00000010 wbsl_resetTimer
00000000  w      *ABS*	00000000 __rom_highdatacopysize
00002ace g       .text	00000000 __msp430_init
00002b44 g     O .bss	0000004e RxBuffer
00002a5c g       .text	00000014 memset
00000f38 g       *ABS*	00000000 RF1AIV
00001f8c g       .text	0000002a lcd_init
000029be g       .text	00000040 main
00000f02 g       *ABS*	00000000 RF1AIFCTL1
00000f11 g       *ABS*	00000000 RF1AINSTRW_H
00001fb6 g       .text	00000070 write_lcd_mem
00002320 g       .text	0000000e wbsl_openFlashForWrite
00001e52 g       .rodata	00000000 __init_array_end
00002b9e g       .heap	00000000 __heap_start__
00002a38 g       .text	00000008 .hidden __mspabi_divu
00000000  w      *ABS*	00000000 __high_bsssize
00002b92 g     O .bss	00000008 sRFwbsl
00000340 g       *ABS*	00000000 TA0CTL
00000000  w      *ABS*	00000000 __rom_highdatastart
00002aea g       .text	00000000 __msp430_fini_end
00000144 g       *ABS*	00000000 FCTL3
0000024a g       *ABS*	00000000 PCSEL_L
00001df8 g     O .rodata	00000014 segments_bitmask
00002aea g       *ABS*	00000000 __romdatastart
00002b34 g     O .bss	00000002 currentPacket
00000a0a g       *ABS*	00000000 LCDBPCTL0
0000218c g       .text	00000012 ReceiveOn
00001e90 g     F .text	00000000 _msp430_run_init_array
00001d30 g     O .rodata	000000c8 itoa_conversion_table
000022d2 g       .text	00000050 WriteBurstReg
00001e52 g       .rodata	00000000 __preinit_array_end
000023e8 g       .text	0000008e wbsl_writePacket
00000000  w      *ABS*	00000000 __high_datastart
00000000  w      *ABS*	00000000 __upper_data_init
00002b22 g       .bss	00000000 __bssstart
0000232e g       .text	0000000e wbsl_lockFlash
00002564 g       .text	00000064 init_watch
00002150 g       .text	0000003e radio_reset
000021fc g       .text	0000003e WriteSingleReg
00000244 g       *ABS*	00000000 PCDIR_L
00002d2e g       .MSP430.attributes	00000000 __stack
00002b22 g       .data	00000000 _edata
00002b9e g       .heap	00000000 _end
00000a06 g       *ABS*	00000000 LCDBMEMCTL
00000344 g       *ABS*	00000000 TA0CCTL1
00002ae0 g       .text	00000000 __msp430_init_end
00000a0c g       *ABS*	00000000 LCDBPCTL1
00002b36 g     O .bss	00000002 totalPackets
00000000  w      *ABS*	00000000 __high_bssstart
00000f10 g       *ABS*	00000000 RF1AINSTRW
00002b40 g     O .bss	00000002 ptrMemory
00000120 g       *ABS*	00000000 PMMCTL0
00000f06 g       *ABS*	00000000 RF1AIFERR
00001e52 g       .rodata	00000000 __init_array_start
00002aec g     O .data	00000028 segments_lcdmem
00002b39 g     O .bss	00000001 wbsl_number_of_retries
0000223a g       .text	0000009c Strobe
0000260e g       .text	000000a0 transmitPacket
00002aea g       .data	00000000 __datastart
00000000  w      *UND*	00000000 _Jv_RegisterClasses
00001e52 g       .rodata	00000000 __preinit_array_start
00001e72 g     F .text	00000014 __crt0_movedata
00000000  w      *UND*	00000000 __register_frame_info
00001e9c g     F .text	00000000 _msp430_run_preinit_array
00000f13 g       *ABS*	00000000 RF1AINSTR1W_H
00000168 g       *ABS*	00000000 UCSCTL4
00002ae0 g       .text	00000000 __msp430_fini



Disassembly of section __reset_vector:

0000fffe <__msp430_resetvec_hook>:
    fffe:	60 1e       	interrupt service routine at 0x1e60

Disassembly of section .text:

00001e60 <__crt0_start>:
    1e60:	31 40 2e 2d 	mov	#11566,	r1	;#0x2d2e

00001e64 <__crt0_init_bss>:
    1e64:	3c 40 22 2b 	mov	#11042,	r12	;#0x2b22
    1e68:	0d 43       	clr	r13		;
    1e6a:	3e 40 7c 00 	mov	#124,	r14	;#0x007c
    1e6e:	b0 12 5c 2a 	call	#10844		;#0x2a5c

00001e72 <__crt0_movedata>:
    1e72:	3c 40 ea 2a 	mov	#10986,	r12	;#0x2aea
    1e76:	3d 40 ea 2a 	mov	#10986,	r13	;#0x2aea
    1e7a:	0d 9c       	cmp	r12,	r13	;
    1e7c:	04 24       	jz	$+10     	;abs 0x1e86
    1e7e:	3e 40 38 00 	mov	#56,	r14	;#0x0038
    1e82:	b0 12 6e 2a 	call	#10862		;#0x2a6e

00001e86 <__crt0_call_init_then_main>:
    1e86:	b0 12 ce 2a 	call	#10958		;#0x2ace
    1e8a:	0c 43       	clr	r12		;
    1e8c:	b0 12 be 29 	call	#10686		;#0x29be

00001e90 <_msp430_run_init_array>:
    1e90:	34 40 52 1e 	mov	#7762,	r4	;#0x1e52
    1e94:	35 40 52 1e 	mov	#7762,	r5	;#0x1e52
    1e98:	26 43       	mov	#2,	r6	;r3 As==10
    1e9a:	0d 3c       	jmp	$+28     	;abs 0x1eb6

00001e9c <_msp430_run_preinit_array>:
    1e9c:	34 40 52 1e 	mov	#7762,	r4	;#0x1e52
    1ea0:	35 40 52 1e 	mov	#7762,	r5	;#0x1e52
    1ea4:	26 43       	mov	#2,	r6	;r3 As==10
    1ea6:	07 3c       	jmp	$+16     	;abs 0x1eb6

00001ea8 <_msp430_run_fini_array>:
    1ea8:	34 40 52 1e 	mov	#7762,	r4	;#0x1e52
    1eac:	35 40 52 1e 	mov	#7762,	r5	;#0x1e52
    1eb0:	36 40 fe ff 	mov	#65534,	r6	;#0xfffe
    1eb4:	00 3c       	jmp	$+2      	;abs 0x1eb6

00001eb6 <_msp430_run_array>:
    1eb6:	05 94       	cmp	r4,	r5	;
    1eb8:	05 24       	jz	$+12     	;abs 0x1ec4
    1eba:	27 44       	mov	@r4,	r7	;
    1ebc:	04 56       	add	r6,	r4	;
    1ebe:	a7 12       	call	@r7		;
    1ec0:	10 40 f4 ff 	br	0xfff4		;PC rel. 0x1eb6

00001ec4 <_msp430_run_done>:
    1ec4:	30 41       	ret			

00001ec6 <deregister_tm_clones>:
    1ec6:	3c 40 ea 2a 	mov	#10986,	r12	;#0x2aea
    1eca:	3c 80 e9 2a 	sub	#10985,	r12	;#0x2ae9
    1ece:	2d 43       	mov	#2,	r13	;r3 As==10
    1ed0:	0d 9c       	cmp	r12,	r13	;
    1ed2:	07 2c       	jc	$+16     	;abs 0x1ee2
    1ed4:	3d 40 00 00 	mov	#0,	r13	;
    1ed8:	0d 93       	cmp	#0,	r13	;r3 As==00
    1eda:	03 24       	jz	$+8      	;abs 0x1ee2
    1edc:	3c 40 ea 2a 	mov	#10986,	r12	;#0x2aea
    1ee0:	8d 12       	call	r13		;
    1ee2:	30 41       	ret			

00001ee4 <register_tm_clones>:
    1ee4:	3d 40 ea 2a 	mov	#10986,	r13	;#0x2aea
    1ee8:	3d 80 ea 2a 	sub	#10986,	r13	;#0x2aea
    1eec:	0d 11       	rra	r13		;
    1eee:	0c 4d       	mov	r13,	r12	;
    1ef0:	5c 03       	rrum	#1,	r12	;
    1ef2:	4d 18 0c 11 	rpt #14 { rrax.w	r12		;
    1ef6:	0d 5c       	add	r12,	r13	;
    1ef8:	0d 11       	rra	r13		;
    1efa:	0d 93       	cmp	#0,	r13	;r3 As==00
    1efc:	07 24       	jz	$+16     	;abs 0x1f0c
    1efe:	3e 40 00 00 	mov	#0,	r14	;
    1f02:	0e 93       	cmp	#0,	r14	;r3 As==00
    1f04:	03 24       	jz	$+8      	;abs 0x1f0c
    1f06:	3c 40 ea 2a 	mov	#10986,	r12	;#0x2aea
    1f0a:	8e 12       	call	r14		;
    1f0c:	30 41       	ret			

00001f0e <__do_global_dtors_aux>:
    1f0e:	0a 15       	pushm	#1,	r10	;16-bit words
    1f10:	c2 93 22 2b 	cmp.b	#0,	&0x2b22	;r3 As==00
    1f14:	20 20       	jnz	$+66     	;abs 0x1f56
    1f16:	1c 42 24 2b 	mov	&0x2b24,r12	;0x2b24
    1f1a:	3a 40 5e 1e 	mov	#7774,	r10	;#0x1e5e
    1f1e:	3a 80 5c 1e 	sub	#7772,	r10	;#0x1e5c
    1f22:	0a 11       	rra	r10		;
    1f24:	3a 53       	add	#-1,	r10	;r3 As==11
    1f26:	0c 9a       	cmp	r10,	r12	;
    1f28:	0b 2c       	jc	$+24     	;abs 0x1f40
    1f2a:	1c 53       	inc	r12		;
    1f2c:	82 4c 24 2b 	mov	r12,	&0x2b24	;
    1f30:	0c 5c       	rla	r12		;
    1f32:	1c 4c 5c 1e 	mov	7772(r12),r12	;0x01e5c
    1f36:	8c 12       	call	r12		;
    1f38:	1c 42 24 2b 	mov	&0x2b24,r12	;0x2b24
    1f3c:	0c 9a       	cmp	r10,	r12	;
    1f3e:	f5 2b       	jnc	$-20     	;abs 0x1f2a
    1f40:	b0 12 c6 1e 	call	#7878		;#0x1ec6
    1f44:	3d 40 00 00 	mov	#0,	r13	;
    1f48:	0d 93       	cmp	#0,	r13	;r3 As==00
    1f4a:	03 24       	jz	$+8      	;abs 0x1f52
    1f4c:	3c 40 54 1e 	mov	#7764,	r12	;#0x1e54
    1f50:	8d 12       	call	r13		;
    1f52:	d2 43 22 2b 	mov.b	#1,	&0x2b22	;r3 As==01
    1f56:	0a 17       	popm	#1,	r10	;16-bit words
    1f58:	30 41       	ret			

00001f5a <call___do_global_dtors_aux>:
    1f5a:	30 41       	ret			

00001f5c <frame_dummy>:
    1f5c:	3e 40 00 00 	mov	#0,	r14	;
    1f60:	0e 93       	cmp	#0,	r14	;r3 As==00
    1f62:	05 24       	jz	$+12     	;abs 0x1f6e
    1f64:	3c 40 54 1e 	mov	#7764,	r12	;#0x1e54
    1f68:	3d 40 26 2b 	mov	#11046,	r13	;#0x2b26
    1f6c:	8e 12       	call	r14		;
    1f6e:	3c 40 ea 2a 	mov	#10986,	r12	;#0x2aea
    1f72:	8c 93 00 00 	cmp	#0,	0(r12)	;r3 As==00
    1f76:	03 20       	jnz	$+8      	;abs 0x1f7e
    1f78:	b0 12 e4 1e 	call	#7908		;#0x1ee4
    1f7c:	30 41       	ret			
    1f7e:	3d 40 00 00 	mov	#0,	r13	;
    1f82:	0d 93       	cmp	#0,	r13	;r3 As==00
    1f84:	f9 27       	jz	$-12     	;abs 0x1f78
    1f86:	8d 12       	call	r13		;
    1f88:	f7 3f       	jmp	$-16     	;abs 0x1f78

00001f8a <call_frame_dummy>:
    1f8a:	30 41       	ret			

00001f8c <lcd_init>:
// @return      none
// *************************************************************************************************
void lcd_init(void)
{
    // Clear entire display memory
    LCDBMEMCTL |= LCDCLRBM + LCDCLRM;
    1f8c:	b2 d0 06 00 06 0a 	bis	#6,	&0x0a06	;

    // LCD_FREQ = ACLK/16/8 = 256Hz
    // Frame frequency = 256Hz/4 = 64Hz, LCD mux 4, LCD on
    LCDBCTL0 = (LCDDIV0 + LCDDIV1 + LCDDIV2 + LCDDIV3) | (LCDPRE0 + LCDPRE1) | LCD4MUX | LCDON;
    1f92:	b2 40 1d 7b 00 0a 	mov	#31517,	&0x0a00	;#0x7b1d

    // LCB_BLK_FREQ = ACLK/8/4096 = 1Hz
    LCDBBLKCTL = LCDBLKPRE0 | LCDBLKPRE1 | LCDBLKDIV0 | LCDBLKDIV1 | LCDBLKDIV2 | LCDBLKMOD0;
    1f98:	b2 40 ed 00 04 0a 	mov	#237,	&0x0a04	;#0x00ed

    // I/O to COM outputs
    P5SEL |= (BIT5 | BIT6 | BIT7);
    1f9e:	f2 d0 e0 ff 4a 02 	bis.b	#65504,	&0x024a	;#0xffe0
    P5DIR |= (BIT5 | BIT6 | BIT7);
    1fa4:	f2 d0 e0 ff 44 02 	bis.b	#65504,	&0x0244	;#0xffe0

    // Activate LCD output
    LCDBPCTL0 = 0xFFFF;                        // Select LCD segments S0-S15
    1faa:	b2 43 0a 0a 	mov	#-1,	&0x0a0a	;r3 As==11
    LCDBPCTL1 = 0x00FF;                        // Select LCD segments S16-S22
    1fae:	b2 40 ff 00 0c 0a 	mov	#255,	&0x0a0c	;#0x00ff

#    ifdef USE_LCD_CHARGE_PUMP
    // Charge pump voltage generated internally, internal bias (V2-V4) generation
    LCDBVCTL = LCDCPEN | VLCD_2_72;
#    endif
}
    1fb4:	30 41       	ret			

00001fb6 <write_lcd_mem>:
//		bitmask		Bitmask for particular display item
//		mode		On, off or blink segments
// @return
// *************************************************************************************************
void write_lcd_mem(uint8_t * lcdmem, uint8_t bits, uint8_t bitmask, uint8_t state)
{
    1fb6:	3d f0 ff 00 	and	#255,	r13	;#0x00ff
    1fba:	3e f0 ff 00 	and	#255,	r14	;#0x00ff
    1fbe:	3f f0 ff 00 	and	#255,	r15	;#0x00ff
    if (state == SEG_ON)
    1fc2:	5f 93       	cmp.b	#1,	r15	;r3 As==01
    1fc4:	07 20       	jnz	$+16     	;abs 0x1fd4
    {
        // Clear segments before writing
        *lcdmem = (uint8_t)(*lcdmem & ~bitmask);
    1fc6:	6f 4c       	mov.b	@r12,	r15	;
    1fc8:	4f ce       	bic.b	r14,	r15	;
    1fca:	4e 4f       	mov.b	r15,	r14	;

        // Set visible segments
        *lcdmem = (uint8_t)(*lcdmem | bits);
    1fcc:	4e dd       	bis.b	r13,	r14	;
    1fce:	cc 4e 00 00 	mov.b	r14,	0(r12)	;
    1fd2:	24 3c       	jmp	$+74     	;abs 0x201c
    }
    else if (state == SEG_OFF)
    1fd4:	0f 93       	cmp	#0,	r15	;r3 As==00
    1fd6:	03 20       	jnz	$+8      	;abs 0x1fde
    {
        // Clear segments
        *lcdmem = (uint8_t)(*lcdmem & ~bitmask);
    1fd8:	cc ce 00 00 	bic.b	r14,	0(r12)	;
    1fdc:	1f 3c       	jmp	$+64     	;abs 0x201c
    }
    else if (state == SEG_ON_BLINK_ON)
    1fde:	6f 93       	cmp.b	#2,	r15	;r3 As==10
    1fe0:	0c 20       	jnz	$+26     	;abs 0x1ffa
    {
        // Clear visible / blink segments before writing
        *lcdmem           = (uint8_t)(*lcdmem & ~bitmask);
    1fe2:	7e e3       	xor.b	#-1,	r14	;r3 As==11
        *(lcdmem + 0x20)    = (uint8_t)(*(lcdmem + 0x20) & ~bitmask);
    1fe4:	5f 4c 20 00 	mov.b	32(r12),r15	;0x00020
    1fe8:	4f fe       	and.b	r14,	r15	;
        *lcdmem = (uint8_t)(*lcdmem & ~bitmask);
    }
    else if (state == SEG_ON_BLINK_ON)
    {
        // Clear visible / blink segments before writing
        *lcdmem           = (uint8_t)(*lcdmem & ~bitmask);
    1fea:	6e fc       	and.b	@r12,	r14	;
        *(lcdmem + 0x20)    = (uint8_t)(*(lcdmem + 0x20) & ~bitmask);

        // Set visible / blink segments
        *lcdmem           = (uint8_t)(*lcdmem | bits);
    1fec:	4e dd       	bis.b	r13,	r14	;
    1fee:	cc 4e 00 00 	mov.b	r14,	0(r12)	;
        *(lcdmem + 0x20)    = (uint8_t)(*(lcdmem + 0x20) | bits);
    1ff2:	4f dd       	bis.b	r13,	r15	;
    1ff4:	cc 4f 20 00 	mov.b	r15,	32(r12)	; 0x0020
    1ff8:	11 3c       	jmp	$+36     	;abs 0x201c
    }
    else if (state == SEG_ON_BLINK_OFF)
    1ffa:	7f 90 03 00 	cmp.b	#3,	r15	;
    1ffe:	07 20       	jnz	$+16     	;abs 0x200e
    {
        // Clear visible segments before writing
        *lcdmem = (uint8_t)(*lcdmem & ~bitmask);
    2000:	7e e3       	xor.b	#-1,	r14	;r3 As==11
    2002:	6f 4c       	mov.b	@r12,	r15	;
    2004:	4f fe       	and.b	r14,	r15	;

        // Set visible segments
        *lcdmem = (uint8_t)(*lcdmem | bits);
    2006:	4f dd       	bis.b	r13,	r15	;
    2008:	cc 4f 00 00 	mov.b	r15,	0(r12)	;
    200c:	05 3c       	jmp	$+12     	;abs 0x2018

        // Clear blink segments
        *(lcdmem + 0x20)    = (uint8_t)(*(lcdmem + 0x20) & ~bitmask);
    }
    else if (state == SEG_OFF_BLINK_OFF)
    200e:	6f 92       	cmp.b	#4,	r15	;r2 As==10
    2010:	05 20       	jnz	$+12     	;abs 0x201c
    {
        // Clear segments
        *lcdmem = (uint8_t)(*lcdmem & ~bitmask);
    2012:	7e e3       	xor.b	#-1,	r14	;r3 As==11
    2014:	cc fe 00 00 	and.b	r14,	0(r12)	;

        // Clear blink segments
        *(lcdmem + 0x20)    = (uint8_t)(*(lcdmem + 0x20) & ~bitmask);
    2018:	cc fe 20 00 	and.b	r14,	32(r12)	; 0x0020
    }
}
    201c:	30 41       	ret			

0000201e <itoa>:
//		uint8_t blanks	fill up result string with number of whitespaces instead of leading
// zeros
// @return      uint8_t		string
// *************************************************************************************************
uint8_t *itoa(uint32_t n, uint8_t digits, uint8_t blanks)
{
    201e:	0a 15       	pushm	#1,	r10	;16-bit words
    2020:	3e f0 ff 00 	and	#255,	r14	;#0x00ff
    // Preset result string
    memcpy(itoa_str, "00", 2);
    2024:	f2 40 30 00 9a 2b 	mov.b	#48,	&0x2b9a	;#0x0030
    202a:	f2 40 30 00 9b 2b 	mov.b	#48,	&0x2b9b	;#0x0030

    // Return empty string if number of digits is invalid (valid range for digits: 1-7)
    if ((digits == 0) || (digits > 2) || n > 99) return (itoa_str);
    2030:	4f 4e       	mov.b	r14,	r15	;
    2032:	7f 53       	add.b	#-1,	r15	;r3 As==11
    2034:	5a 43       	mov.b	#1,	r10	;r3 As==01
    2036:	4a 9f       	cmp.b	r15,	r10	;
    2038:	11 28       	jnc	$+36     	;abs 0x205c
    203a:	0d 93       	cmp	#0,	r13	;r3 As==00
    203c:	0f 20       	jnz	$+32     	;abs 0x205c
    203e:	3d 40 63 00 	mov	#99,	r13	;#0x0063
    2042:	0d 9c       	cmp	r12,	r13	;
    2044:	0b 28       	jnc	$+24     	;abs 0x205c

    // Numbers 0 .. 99 can be copied from itoa_conversion_table without conversion
    memcpy(itoa_str, itoa_conversion_table[n] + (2 - digits), digits);
    2046:	0c 5c       	rla	r12		;
    2048:	0d 4c       	mov	r12,	r13	;
    204a:	3d 50 30 1d 	add	#7472,	r13	;#0x1d30
    204e:	2f 43       	mov	#2,	r15	;r3 As==10
    2050:	0f 8e       	sub	r14,	r15	;
    2052:	3c 40 9a 2b 	mov	#11162,	r12	;#0x2b9a
    2056:	0d 5f       	add	r15,	r13	;
    2058:	b0 12 40 2a 	call	#10816		;#0x2a40

    return (itoa_str);
}
    205c:	3c 40 9a 2b 	mov	#11162,	r12	;#0x2b9a
    2060:	0a 17       	popm	#1,	r10	;16-bit words
    2062:	30 41       	ret			

00002064 <display_symbol>:
// @param       uint8_t symbol		A valid LCD symbol (index 0..42)
//		uint8_t state		SEG_ON, SEG_OFF, SEG_BLINK
// @return      none
// *************************************************************************************************
void display_symbol(uint8_t symbol, uint8_t mode)
{
    2064:	3c f0 ff 00 	and	#255,	r12	;#0x00ff
    2068:	4f 4d       	mov.b	r13,	r15	;
    uint8_t * lcdmem;
    uint8_t bits;
    uint8_t bitmask;

    if (symbol <= LCD_SEG_L2_DP)
    206a:	7d 40 13 00 	mov.b	#19,	r13	;#0x0013
    206e:	4d 9c       	cmp.b	r12,	r13	;
    2070:	08 28       	jnc	$+18     	;abs 0x2082
    {
        // Get LCD memory address for symbol from table
        lcdmem    = (uint8_t *)segments_lcdmem[symbol];

        // Get bits for symbol from table
        bits      = segments_bitmask[symbol];
    2072:	5e 4c f8 1d 	mov.b	7672(r12),r14	;0x01df8
    uint8_t bitmask;

    if (symbol <= LCD_SEG_L2_DP)
    {
        // Get LCD memory address for symbol from table
        lcdmem    = (uint8_t *)segments_lcdmem[symbol];
    2076:	0c 5c       	rla	r12		;

        // Bitmask for symbols equals bits
        bitmask = bits;

        // Write LCD memory
        write_lcd_mem(lcdmem, bits, bitmask, mode);
    2078:	1c 4c ec 2a 	mov	10988(r12),r12	;0x02aec
    207c:	4d 4e       	mov.b	r14,	r13	;
    207e:	b0 12 b6 1f 	call	#8118		;#0x1fb6
    }
}
    2082:	30 41       	ret			

00002084 <display_char>:
//		uint8_t chr			Character to display
//		uint8_t mode		SEG_ON, SEG_OFF, SEG_BLINK
// @return      none
// *************************************************************************************************
void display_char(uint8_t segment, uint8_t chr, uint8_t mode)
{
    2084:	1a 15       	pushm	#2,	r10	;16-bit words
    2086:	4a 4c       	mov.b	r12,	r10	;
    2088:	4b 4d       	mov.b	r13,	r11	;
    208a:	4f 4e       	mov.b	r14,	r15	;
    uint8_t * lcdmem;                // Pointer to LCD memory
    uint8_t bitmask;                 // Bitmask for character
    uint8_t bits, bits1;             // Bits to write

    // Write to single 7-segment character
    if ((segment >= LCD_SEG_L1_3) && (segment <= LCD_SEG_L2_DP))
    208c:	4c 4a       	mov.b	r10,	r12	;
    208e:	7c 50 fc ff 	add.b	#65532,	r12	;#0xfffc
    2092:	79 40 0f 00 	mov.b	#15,	r9	;#0x000f
    2096:	49 9c       	cmp.b	r12,	r9	;
    2098:	31 28       	jnc	$+100    	;abs 0x20fc
    {
        // Get LCD memory address for segment from table
        lcdmem = (uint8_t *)segments_lcdmem[segment];
    209a:	0c 4a       	mov	r10,	r12	;
    209c:	0c 5a       	add	r10,	r12	;
    209e:	1c 4c ec 2a 	mov	10988(r12),r12	;0x02aec

        // Get bitmask for character from table
        bitmask = segments_bitmask[segment];
    20a2:	5e 4a f8 1d 	mov.b	7672(r10),r14	;0x01df8

        // Get bits from font set
        if ((chr >= 0x30) && (chr <= 0x5A))
    20a6:	4d 4b       	mov.b	r11,	r13	;
    20a8:	7d 50 d0 ff 	add.b	#65488,	r13	;#0xffd0
    20ac:	79 40 2a 00 	mov.b	#42,	r9	;#0x002a
    20b0:	49 9d       	cmp.b	r13,	r9	;
    20b2:	06 28       	jnc	$+14     	;abs 0x20c0
        {
            // Use font set
            bits = lcd_font[chr - 0x30];
    20b4:	0d 4b       	mov	r11,	r13	;
    20b6:	3d 50 0c 1e 	add	#7692,	r13	;#0x1e0c
    20ba:	5d 4d d0 ff 	mov.b	-48(r13),r13	;0xffffffd0
    20be:	06 3c       	jmp	$+14     	;abs 0x20cc
        }
        else if (chr == 0x2D)
    20c0:	3b 90 2d 00 	cmp	#45,	r11	;#0x002d
    20c4:	02 24       	jz	$+6      	;abs 0x20ca
            bits = BIT1;
        }
        else
        {
            // Other characters map to ' ' (blank)
            bits = 0;
    20c6:	0d 43       	clr	r13		;
    20c8:	01 3c       	jmp	$+4      	;abs 0x20cc
            bits = lcd_font[chr - 0x30];
        }
        else if (chr == 0x2D)
        {
            // '-' not in font set
            bits = BIT1;
    20ca:	2d 43       	mov	#2,	r13	;r3 As==10
            // Other characters map to ' ' (blank)
            bits = 0;
        }
        // When addressing LINE2 7-segment characters need to swap high- and low-nibble,
        // because LCD COM/SEG assignment is mirrored against LINE1
        if (segment >= LCD_SEG_L2_5)
    20cc:	79 40 0a 00 	mov.b	#10,	r9	;#0x000a
    20d0:	49 9a       	cmp.b	r10,	r9	;
    20d2:	12 2c       	jc	$+38     	;abs 0x20f8
        {
            bits1 = ((bits << 4) & 0xF0) | ((bits >> 4) & 0x0F);
    20d4:	09 4d       	mov	r13,	r9	;
    20d6:	43 18 09 59 	rpt #4 { rlax.w	r9		;
    20da:	5d 0f       	rrum	#4,	r13	;
    20dc:	4d d9       	bis.b	r9,	r13	;
    20de:	3d f0 ff 00 	and	#255,	r13	;#0x00ff
            bits = bits1;

            // When addressing LCD_SEG_L2_5, need to convert ASCII '1' and 'L' to 1 bit,
            // because LCD COM/SEG assignment is special for this incomplete character
            if (segment == LCD_SEG_L2_5)
    20e2:	3a 90 0b 00 	cmp	#11,	r10	;#0x000b
    20e6:	08 20       	jnz	$+18     	;abs 0x20f8
            {
                if ((chr == '1') || (chr == 'L')) bits = BIT7;
    20e8:	7b 90 31 00 	cmp.b	#49,	r11	;#0x0031
    20ec:	03 24       	jz	$+8      	;abs 0x20f4
    20ee:	7b 90 4c 00 	cmp.b	#76,	r11	;#0x004c
    20f2:	02 20       	jnz	$+6      	;abs 0x20f8
    20f4:	3d 40 80 00 	mov	#128,	r13	;#0x0080
            }
        }

        // Physically write to LCD memory
        write_lcd_mem(lcdmem, bits, bitmask, mode);
    20f8:	b0 12 b6 1f 	call	#8118		;#0x1fb6
    }
}
    20fc:	19 17       	popm	#2,	r10	;16-bit words
    20fe:	30 41       	ret			

00002100 <display_chars>:
//		uint8_t mode		SEG_ON, SEG_OFF, SEG_BLINK
// @return      none
// *************************************************************************************************
//void display_chars(uint8_t segments, uint8_t * str, uint8_t mode)
void display_chars(uint8_t line, uint8_t * str)
{
    2100:	4a 15       	pushm	#5,	r10	;16-bit words
    2102:	06 4d       	mov	r13,	r6	;
    uint8_t i;
    uint8_t char_start;                      // Starting point for consecutive write
    uint8_t length = 0;

    if (line == LINE2)
    2104:	6c 93       	cmp.b	#2,	r12	;r3 As==10
    2106:	04 24       	jz	$+10     	;abs 0x2110
        length = 6;
    }
    else
    {
        char_start = LCD_SEG_L1_1;
        length = 2;
    2108:	29 43       	mov	#2,	r9	;r3 As==10
        char_start = LCD_SEG_L2_5;
        length = 6;
    }
    else
    {
        char_start = LCD_SEG_L1_1;
    210a:	38 40 06 00 	mov	#6,	r8	;
    210e:	04 3c       	jmp	$+10     	;abs 0x2118
    uint8_t length = 0;

    if (line == LINE2)
    {
        char_start = LCD_SEG_L2_5;
        length = 6;
    2110:	39 40 06 00 	mov	#6,	r9	;
    uint8_t char_start;                      // Starting point for consecutive write
    uint8_t length = 0;

    if (line == LINE2)
    {
        char_start = LCD_SEG_L2_5;
    2114:	38 40 0b 00 	mov	#11,	r8	;#0x000b
        length = 6;
    }
    else
    {
        char_start = LCD_SEG_L1_1;
    2118:	0a 43       	clr	r10		;

    // Write consecutive characters
    for (i = 0; i < length; i++)
    {
        // Use single character routine to write display memory
        display_char(char_start + i, *(str + i), SEG_ON);
    211a:	37 40 84 20 	mov	#8324,	r7	;#0x2084
    211e:	0e 46       	mov	r6,	r14	;
    2120:	0e 5a       	add	r10,	r14	;
    2122:	4c 4a       	mov.b	r10,	r12	;
    2124:	4c 58       	add.b	r8,	r12	;
    2126:	6d 4e       	mov.b	@r14,	r13	;
    2128:	5e 43       	mov.b	#1,	r14	;r3 As==01
    212a:	87 12       	call	r7		;
    212c:	1a 53       	inc	r10		;
        char_start = LCD_SEG_L1_1;
        length = 2;
    }

    // Write consecutive characters
    for (i = 0; i < length; i++)
    212e:	4a 99       	cmp.b	r9,	r10	;
    2130:	f6 2b       	jnc	$-18     	;abs 0x211e
    {
        // Use single character routine to write display memory
        display_char(char_start + i, *(str + i), SEG_ON);
    }
}
    2132:	46 17       	popm	#5,	r10	;16-bit words
    2134:	30 41       	ret			

00002136 <clear_display>:
// @brief       Erase LINE1 and LINE2 segments. Keep icons.
// @param       none
// @return      none
// *************************************************************************************************
void clear_display(void)
{
    2136:	0a 15       	pushm	#1,	r10	;16-bit words
    display_chars(LINE1, (uint8_t *)"  ");
    2138:	3a 40 00 21 	mov	#8448,	r10	;#0x2100
    213c:	5c 43       	mov.b	#1,	r12	;r3 As==01
    213e:	3d 40 37 1e 	mov	#7735,	r13	;#0x1e37
    2142:	8a 12       	call	r10		;
    display_chars(LINE2, (uint8_t *)"      ");
    2144:	6c 43       	mov.b	#2,	r12	;r3 As==10
    2146:	3d 40 3a 1e 	mov	#7738,	r13	;#0x1e3a
    214a:	8a 12       	call	r10		;
}
    214c:	0a 17       	popm	#1,	r10	;16-bit words
    214e:	30 41       	ret			

00002150 <radio_reset>:
// @brief       Reset radio core.
// @param       none
// @return      none
// *************************************************************************************************
void radio_reset(void)
{
    2150:	0a 15       	pushm	#1,	r10	;16-bit words
    2152:	21 83       	decd	r1		;
    volatile uint16_t i;
    uint8_t x;

    // Clear any radio pending interrupt
    RF1AIFG = 0;
    2154:	82 43 32 0f 	mov	#0,	&0x0f32	;r3 As==00

    // Reset radio core
    Strobe(RF_SRES);
    2158:	3a 40 3a 22 	mov	#8762,	r10	;#0x223a
    215c:	7c 40 30 00 	mov.b	#48,	r12	;#0x0030
    2160:	8a 12       	call	r10		;
    // Wait before checking IDLE
    for (i = 0; i < 100; i++) ;
    2162:	81 43 00 00 	mov	#0,	0(r1)	;r3 As==00
    2166:	2c 41       	mov	@r1,	r12	;
    2168:	3d 40 63 00 	mov	#99,	r13	;#0x0063
    216c:	0d 9c       	cmp	r12,	r13	;
    216e:	03 28       	jnc	$+8      	;abs 0x2176
    2170:	91 53 00 00 	inc	0(r1)		;
    2174:	f8 3f       	jmp	$-14     	;abs 0x2166

    do {
        x = Strobe(RF_SIDLE);
    2176:	7c 40 36 00 	mov.b	#54,	r12	;#0x0036
    217a:	8a 12       	call	r10		;
    } while ((x & 0x70) != 0x00);
    217c:	7c b0 70 00 	bit.b	#112,	r12	;#0x0070
    2180:	fa 23       	jnz	$-10     	;abs 0x2176

    // Clear radio error register
    RF1AIFERR = 0;
    2182:	82 43 06 0f 	mov	#0,	&0x0f06	;r3 As==00
}
    2186:	21 53       	incd	r1		;
    2188:	0a 17       	popm	#1,	r10	;16-bit words
    218a:	30 41       	ret			

0000218c <ReceiveOn>:
// @param       none
// @return      none
// *************************************************************************************************
void ReceiveOn(void)
{
    RF1AIFG = 0; //&= ~BIT9;                         // Clear a pending interrupt
    218c:	82 43 32 0f 	mov	#0,	&0x0f32	;r3 As==00
    // Update Mode Flag
    wbslMode_flag = WBSL_RX_MODE;
    2190:	e2 43 3d 2b 	mov.b	#2,	&0x2b3d	;r3 As==10
    Strobe(RF_SRX);
    2194:	7c 40 34 00 	mov.b	#52,	r12	;#0x0034
    2198:	b0 12 3a 22 	call	#8762		;#0x223a
}
    219c:	30 41       	ret			

0000219e <ReceiveOff>:
// @brief       Put Radio in Idle Mode
// @param       none
// @return      none
// *************************************************************************************************
void ReceiveOff(void)
{
    219e:	0a 15       	pushm	#1,	r10	;16-bit words
    uint8_t x;

    // Update Mode Flag
    wbslMode_flag = WBSL_IDLE_MODE;
    21a0:	d2 43 3d 2b 	mov.b	#1,	&0x2b3d	;r3 As==01
    do {
        x = Strobe(RF_SIDLE);
    21a4:	3a 40 3a 22 	mov	#8762,	r10	;#0x223a
    21a8:	7c 40 36 00 	mov.b	#54,	r12	;#0x0036
    21ac:	8a 12       	call	r10		;
    } while (x & 0x70);
    21ae:	7c b0 70 00 	bit.b	#112,	r12	;#0x0070
    21b2:	fa 23       	jnz	$-10     	;abs 0x21a8
    /* Wait for XOSC to be stable and radio in IDLE state */

    Strobe(RF_SFRX);      /* Flush the receive FIFO of any residual data */
    21b4:	7c 40 3a 00 	mov.b	#58,	r12	;#0x003a
    21b8:	b0 12 3a 22 	call	#8762		;#0x223a

    RF1AIFG = 0;          // Clear pending IFG
    21bc:	82 43 32 0f 	mov	#0,	&0x0f32	;r3 As==00
}
    21c0:	0a 17       	popm	#1,	r10	;16-bit words
    21c2:	30 41       	ret			

000021c4 <ReadSingleReg>:
// @brief       Read byte from register.
// @param       none
// @return      none
// *************************************************************************************************
uint8_t ReadSingleReg(uint8_t addr)
{
    21c4:	3c f0 ff 00 	and	#255,	r12	;#0x00ff
    uint8_t x;
    uint16_t int_state;

    ENTER_CRITICAL_SECTION(int_state);
    21c8:	0d 42       	mov	r2,	r13	;
    21ca:	32 c2       	dint			
    21cc:	03 43       	nop			

    while (!(RF1AIFCTL1 & RFINSTRIFG)) ;
    21ce:	b2 b0 10 00 02 0f 	bit	#16,	&0x0f02	;#0x0010
    21d4:	fc 27       	jz	$-6      	;abs 0x21ce

    if ((addr <= 0x2E) || (addr == 0x3E))
    21d6:	7e 40 2e 00 	mov.b	#46,	r14	;#0x002e
    21da:	4e 9c       	cmp.b	r12,	r14	;
    21dc:	03 2c       	jc	$+8      	;abs 0x21e4
    21de:	3c 90 3e 00 	cmp	#62,	r12	;#0x003e
    21e2:	03 20       	jnz	$+8      	;abs 0x21ea
    {
        RF1AINSTR1B = (addr | RF_SNGLREGRD);
    21e4:	7c d0 80 ff 	bis.b	#65408,	r12	;#0xff80
    21e8:	02 3c       	jmp	$+6      	;abs 0x21ee
    }
    else
    {
        RF1AINSTR1B = (addr | RF_REGRD);
    21ea:	7c d0 c0 ff 	bis.b	#65472,	r12	;#0xffc0
    21ee:	c2 4c 13 0f 	mov.b	r12,	&0x0f13	;
    }

    x = RF1ADOUTB;
    21f2:	5c 42 20 0f 	mov.b	&0x0f20,r12	;0x0f20
    //RF1ADINB = 0; //dummy write
    EXIT_CRITICAL_SECTION(int_state);
    21f6:	02 4d       	mov	r13,	r2	;
    21f8:	03 43       	nop			

    return x;
}
    21fa:	30 41       	ret			

000021fc <WriteSingleReg>:
// @brief       Write byte to register.
// @param       none
// @return      none
// *************************************************************************************************
void WriteSingleReg(uint8_t addr, uint8_t value)
{
    21fc:	21 83       	decd	r1		;
    21fe:	3c f0 ff 00 	and	#255,	r12	;#0x00ff
    2202:	3d f0 ff 00 	and	#255,	r13	;#0x00ff
    volatile uint16_t i __attribute__((unused));
    uint16_t int_state;

    ENTER_CRITICAL_SECTION(int_state);
    2206:	0e 42       	mov	r2,	r14	;
    2208:	32 c2       	dint			
    220a:	03 43       	nop			

    while (!(RF1AIFCTL1 & RFINSTRIFG)) ;           // Wait for the Radio to be ready for the next
    220c:	b2 b0 10 00 02 0f 	bit	#16,	&0x0f02	;#0x0010
    2212:	fc 27       	jz	$-6      	;abs 0x220c
                                                   // instruction

    RF1AINSTRW = ((addr | RF_REGWR) << 8) + value; // Send address + Instruction
    2214:	7c d0 40 00 	bis.b	#64,	r12	;#0x0040
    2218:	47 18 0c 5c 	rpt #8 { rlax.w	r12		;
    221c:	0c 5d       	add	r13,	r12	;
    221e:	82 4c 10 0f 	mov	r12,	&0x0f10	;
    while (!(RFDINIFG & RF1AIFCTL1)) ;
    2222:	b2 b0 20 00 02 0f 	bit	#32,	&0x0f02	;#0x0020
    2228:	fc 27       	jz	$-6      	;abs 0x2222

    i = RF1ADOUTB;                                 // Reset RFDOUTIFG flag which contains status
    222a:	5c 42 20 0f 	mov.b	&0x0f20,r12	;0x0f20
    222e:	81 4c 00 00 	mov	r12,	0(r1)	;
                                                   // byte

    EXIT_CRITICAL_SECTION(int_state);
    2232:	02 4e       	mov	r14,	r2	;
    2234:	03 43       	nop			
}
    2236:	21 53       	incd	r1		;
    2238:	30 41       	ret			

0000223a <Strobe>:
// @brief       Send command to radio.
// @param       none
// @return      none
// *************************************************************************************************
uint8_t Strobe(uint8_t strobe)
{
    223a:	3a 15       	pushm	#4,	r10	;16-bit words
    223c:	4a 4c       	mov.b	r12,	r10	;
    uint8_t statusByte = 0;
    uint16_t int_state, gdo_state;

    // Check for valid strobe command
    if ((strobe == 0xBD) || ((strobe > RF_SRES) && (strobe < RF_SNOP)))
    223e:	7a 90 bd ff 	cmp.b	#65469,	r10	;#0xffbd
    2242:	07 24       	jz	$+16     	;abs 0x2252
    2244:	4c 4a       	mov.b	r10,	r12	;
    2246:	7c 50 cf ff 	add.b	#65487,	r12	;#0xffcf
    224a:	7d 40 0b 00 	mov.b	#11,	r13	;#0x000b
    224e:	4d 9c       	cmp.b	r12,	r13	;
    2250:	3d 28       	jnc	$+124    	;abs 0x22cc
    {
        ENTER_CRITICAL_SECTION(int_state);
    2252:	08 42       	mov	r2,	r8	;
    2254:	32 c2       	dint			
    2256:	03 43       	nop			

        // Clear the Status read flag
        RF1AIFCTL1 &= ~(RFSTATIFG);
    2258:	b2 f0 bf ff 02 0f 	and	#65471,	&0x0f02	;#0xffbf

        // Wait for radio to be ready for next instruction
        while (!(RF1AIFCTL1 & RFINSTRIFG)) ;
    225e:	b2 b0 10 00 02 0f 	bit	#16,	&0x0f02	;#0x0010
    2264:	fc 27       	jz	$-6      	;abs 0x225e

        // Write the strobe instruction
        if ((strobe > RF_SRES) && (strobe < RF_SNOP))
    2266:	4c 4a       	mov.b	r10,	r12	;
    2268:	7c 50 cf ff 	add.b	#65487,	r12	;#0xffcf
    226c:	7d 40 0b 00 	mov.b	#11,	r13	;#0x000b
    2270:	4d 9c       	cmp.b	r12,	r13	;
    2272:	25 28       	jnc	$+76     	;abs 0x22be
        {

            gdo_state = ReadSingleReg(IOCFG2);         // buffer IOCFG2 state
    2274:	4c 43       	clr.b	r12		;
    2276:	b0 12 c4 21 	call	#8644		;#0x21c4
    227a:	47 4c       	mov.b	r12,	r7	;
            WriteSingleReg(IOCFG2, 0x29);              // c-ready to GDO2
    227c:	39 40 fc 21 	mov	#8700,	r9	;#0x21fc
    2280:	4c 43       	clr.b	r12		;
    2282:	7d 40 29 00 	mov.b	#41,	r13	;#0x0029
    2286:	89 12       	call	r9		;

            RF1AINSTRB = strobe;
    2288:	c2 4a 11 0f 	mov.b	r10,	&0x0f11	;
            if ((RF1AIN & 0x04) == 0x04)               // chip at sleep mode
    228c:	a2 b2 30 0f 	bit	#4,	&0x0f30	;r2 As==10
    2290:	12 24       	jz	$+38     	;abs 0x22b6
            {
                if ((strobe == RF_SXOFF) || (strobe == RF_SPWD) || (strobe == RF_SWOR)){ }
    2292:	3a 90 32 00 	cmp	#50,	r10	;#0x0032
    2296:	0f 24       	jz	$+32     	;abs 0x22b6
    2298:	7a 50 c8 ff 	add.b	#65480,	r10	;#0xffc8
    229c:	5c 43       	mov.b	#1,	r12	;r3 As==01
    229e:	4c 9a       	cmp.b	r10,	r12	;
    22a0:	0a 2c       	jc	$+22     	;abs 0x22b6
                else
                {
                    while ((RF1AIN & 0x04) == 0x04) ;  // c-ready ?
    22a2:	a2 b2 30 0f 	bit	#4,	&0x0f30	;r2 As==10
    22a6:	fd 23       	jnz	$-4      	;abs 0x22a2
                    __delay_cycles(9800);              // Delay for ~810usec at 12MHz CPU clock
    22a8:	0d 14       	pushm.a	#1,	r13	;20-bit words
    22aa:	3d 40 bf 0c 	mov	#3263,	r13	;#0x0cbf
    22ae:	1d 83       	dec	r13		;
    22b0:	fe 23       	jnz	$-2      	;abs 0x22ae
    22b2:	0d 16       	popm.a	#1,	r13	;20-bit words
    22b4:	03 43       	nop			
                }
            }
            WriteSingleReg(IOCFG2, gdo_state);         // restore IOCFG2 setting
    22b6:	4c 43       	clr.b	r12		;
    22b8:	4d 47       	mov.b	r7,	r13	;
    22ba:	89 12       	call	r9		;
    22bc:	02 3c       	jmp	$+6      	;abs 0x22c2
        }
        else                                           // chip active mode
        {
            RF1AINSTRB = strobe;
    22be:	c2 4a 11 0f 	mov.b	r10,	&0x0f11	;
        }
        statusByte = RF1ASTATB;
    22c2:	5c 42 21 0f 	mov.b	&0x0f21,r12	;0x0f21

        EXIT_CRITICAL_SECTION(int_state);
    22c6:	02 48       	mov	r8,	r2	;
    22c8:	03 43       	nop			
    22ca:	01 3c       	jmp	$+4      	;abs 0x22ce
// @param       none
// @return      none
// *************************************************************************************************
uint8_t Strobe(uint8_t strobe)
{
    uint8_t statusByte = 0;
    22cc:	0c 43       	clr	r12		;
        statusByte = RF1ASTATB;

        EXIT_CRITICAL_SECTION(int_state);
    }
    return statusByte;
}
    22ce:	37 17       	popm	#4,	r10	;16-bit words
    22d0:	30 41       	ret			

000022d2 <WriteBurstReg>:
// @brief       Write sequence of bytes to register.
// @param       none
// @return      none
// *************************************************************************************************
void WriteBurstReg(uint8_t addr, uint8_t *buffer, uint8_t count)
{
    22d2:	3c f0 ff 00 	and	#255,	r12	;#0x00ff
    22d6:	3e f0 ff 00 	and	#255,	r14	;#0x00ff
    // Write Burst works wordwise not bytewise - bug known already
    uint8_t i;
    uint16_t int_state;

    ENTER_CRITICAL_SECTION(int_state);
    22da:	0f 42       	mov	r2,	r15	;
    22dc:	32 c2       	dint			
    22de:	03 43       	nop			

    while (!(RF1AIFCTL1 & RFINSTRIFG)) ;               // Wait for the Radio to be ready for next
    22e0:	b2 b0 10 00 02 0f 	bit	#16,	&0x0f02	;#0x0010
    22e6:	fc 27       	jz	$-6      	;abs 0x22e0
                                                       // instruction
    RF1AINSTRW = ((addr | RF_REGWR) << 8) + buffer[0]; // Send address + Instruction
    22e8:	7c d0 40 00 	bis.b	#64,	r12	;#0x0040
    22ec:	47 18 0c 5c 	rpt #8 { rlax.w	r12		;
    22f0:	6b 4d       	mov.b	@r13,	r11	;
    22f2:	0c 5b       	add	r11,	r12	;
    22f4:	82 4c 10 0f 	mov	r12,	&0x0f10	;
    22f8:	1d 53       	inc	r13		;

    for (i = 1; i < count; i++)
    22fa:	1c 43       	mov	#1,	r12	;r3 As==01
    22fc:	4c 9e       	cmp.b	r14,	r12	;
    22fe:	0b 2c       	jc	$+24     	;abs 0x2316
    {
        while (!(RFDINIFG & RF1AIFCTL1)) ;             // Wait for TX to finish
    2300:	b2 b0 20 00 02 0f 	bit	#32,	&0x0f02	;#0x0020
    2306:	fc 27       	jz	$-6      	;abs 0x2300
        RF1ADINB = buffer[i];                          // Send data
    2308:	e2 4d 10 0f 	mov.b	@r13,	&0x0f10	;

    while (!(RF1AIFCTL1 & RFINSTRIFG)) ;               // Wait for the Radio to be ready for next
                                                       // instruction
    RF1AINSTRW = ((addr | RF_REGWR) << 8) + buffer[0]; // Send address + Instruction

    for (i = 1; i < count; i++)
    230c:	5c 53       	inc.b	r12		;
    230e:	3c f0 ff 00 	and	#255,	r12	;#0x00ff
    2312:	1d 53       	inc	r13		;
    2314:	f3 3f       	jmp	$-24     	;abs 0x22fc
    {
        while (!(RFDINIFG & RF1AIFCTL1)) ;             // Wait for TX to finish
        RF1ADINB = buffer[i];                          // Send data
    }
    i = RF1ADOUTB;                                     // Reset RFDOUTIFG flag which contains status
    2316:	5c 42 20 0f 	mov.b	&0x0f20,r12	;0x0f20
                                                       // byte

    EXIT_CRITICAL_SECTION(int_state);
    231a:	02 4f       	mov	r15,	r2	;
    231c:	03 43       	nop			
}
    231e:	30 41       	ret			

00002320 <wbsl_openFlashForWrite>:
// @return      none
// *************************************************************************************************
#ifdef RAM_BASED_RFBSL
void wbsl_openFlashForWrite()
{
    FCTL3 = FWKEY;                      // Clear Lock bit
    2320:	b2 40 00 a5 44 01 	mov	#42240,	&0x0144	;#0xa500
    FCTL1 = FWKEY + WRT;                // Set write bit
    2326:	b2 40 40 a5 40 01 	mov	#42304,	&0x0140	;#0xa540
}
    232c:	30 41       	ret			

0000232e <wbsl_lockFlash>:
// @return      none
// *************************************************************************************************
#ifdef RAM_BASED_RFBSL
void wbsl_lockFlash(void)
{
    FCTL1 = FWKEY;                      // Clear WRT bit
    232e:	b2 40 00 a5 40 01 	mov	#42240,	&0x0140	;#0xa500
    FCTL3 = FWKEY + LOCK;               // Set LOCK bit
    2334:	b2 40 10 a5 44 01 	mov	#42256,	&0x0144	;#0xa510
}
    233a:	30 41       	ret			

0000233c <wbsl_writeByte>:
// @return      uint8_t		status
//              WBSL_OPERATION_SUCC   Byte successfully written
//              WBSL_OPERATION_FAIL   Write Check failed
// *************************************************************************************************
uint8_t wbsl_writeByte(uint8_t *address, uint8_t data)
{
    233c:	3d f0 ff 00 	and	#255,	r13	;#0x00ff
    uint8_t ret_status = WBSL_OPERATION_SUCC;

#ifdef RAM_BASED_RFBSL
    while (FCTL3 & BUSY) ;
    2340:	92 b3 44 01 	bit	#1,	&0x0144	;r3 As==01
    2344:	fd 23       	jnz	$-4      	;abs 0x2340
#endif
    *address = data;
    2346:	cc 4d 00 00 	mov.b	r13,	0(r12)	;
#ifdef RAM_BASED_RFBSL
    while (FCTL3 & BUSY) ;
    234a:	92 b3 44 01 	bit	#1,	&0x0144	;r3 As==01
    234e:	fd 23       	jnz	$-4      	;abs 0x234a
    if (*address != data)
    {
        ret_status = WBSL_OPERATION_FAIL;
    }
    return ret_status;
}
    2350:	5c 43       	mov.b	#1,	r12	;r3 As==01
    2352:	30 41       	ret			

00002354 <wbsl_writeWord>:
uint8_t wbsl_writeWord(uint16_t *addr, uint16_t data)
{
    uint8_t ret_status = WBSL_OPERATION_SUCC;

#ifdef RAM_BASED_RFBSL
    while (FCTL3 & BUSY) ;
    2354:	92 b3 44 01 	bit	#1,	&0x0144	;r3 As==01
    2358:	fd 23       	jnz	$-4      	;abs 0x2354
#endif
    *addr = data;
    235a:	8c 4d 00 00 	mov	r13,	0(r12)	;
#ifdef RAM_BASED_RFBSL
    while (FCTL3 & BUSY) ;
    235e:	92 b3 44 01 	bit	#1,	&0x0144	;r3 As==01
    2362:	fd 23       	jnz	$-4      	;abs 0x235e
    if (*addr != data)
    {
        ret_status = WBSL_OPERATION_FAIL;
    }
    return ret_status;
}
    2364:	5c 43       	mov.b	#1,	r12	;r3 As==01
    2366:	30 41       	ret			

00002368 <wbsl_writeBytes>:
// @return      uint8_t		status
//              WBSL_OPERATION_SUCC   Bytes successfully written
//              WBSL_OPERATION_FAIL   Write Check failed
// *************************************************************************************************
uint8_t wbsl_writeBytes(uint8_t *startAddr, uint8_t size,  uint8_t *data)
{
    2368:	6a 15       	pushm	#7,	r10	;16-bit words
    236a:	21 82       	sub	#4,	r1	;r2 As==10
    236c:	08 4c       	mov	r12,	r8	;
    236e:	3d f0 ff 00 	and	#255,	r13	;#0x00ff
    2372:	04 4e       	mov	r14,	r4	;

    // Make sure that the comparison doesn't overflow at the End of the 16 bit address, make the
    // comparison in 32bit
#pragma GCC diagnostic push
#pragma GCC diagnostic ignored "-Wpointer-to-int-cast"
    for (i = ((uint32_t)startAddr); i < ((uint32_t)startAddr) + ((uint32_t)size); i++)
    2374:	06 4c       	mov	r12,	r6	;
    2376:	07 4c       	mov	r12,	r7	;
    2378:	4e 18 07 11 	rpt #15 { rrax.w	r7		;
    237c:	0c 4d       	mov	r13,	r12	;
    237e:	0d 43       	clr	r13		;
    2380:	0a 46       	mov	r6,	r10	;
    2382:	0a 5c       	add	r12,	r10	;
    2384:	09 47       	mov	r7,	r9	;
    2386:	09 6d       	addc	r13,	r9	;
    2388:	81 49 00 00 	mov	r9,	0(r1)	;
    {
#ifdef RAM_BASED_RFBSL
        if ((((uint16_t)startAddr) & 0x01) || i == (uint32_t)startAddr + (uint32_t)size - 1)
    238c:	0c 4a       	mov	r10,	r12	;
    238e:	3c 53       	add	#-1,	r12	;r3 As==11
    2390:	81 4c 02 00 	mov	r12,	2(r1)	;
    2394:	05 49       	mov	r9,	r5	;
    2396:	35 63       	addc	#-1,	r5	;r3 As==11

    // Make sure that the comparison doesn't overflow at the End of the 16 bit address, make the
    // comparison in 32bit
#pragma GCC diagnostic push
#pragma GCC diagnostic ignored "-Wpointer-to-int-cast"
    for (i = ((uint32_t)startAddr); i < ((uint32_t)startAddr) + ((uint32_t)size); i++)
    2398:	07 99       	cmp	r9,	r7	;
    239a:	1d 2c       	jc	$+60     	;abs 0x23d6
    {
#ifdef RAM_BASED_RFBSL
        if ((((uint16_t)startAddr) & 0x01) || i == (uint32_t)startAddr + (uint32_t)size - 1)
    239c:	18 b3       	bit	#1,	r8	;r3 As==01
    239e:	05 20       	jnz	$+12     	;abs 0x23aa
    23a0:	16 91 02 00 	cmp	2(r1),	r6	;
    23a4:	0a 20       	jnz	$+22     	;abs 0x23ba
    23a6:	07 95       	cmp	r5,	r7	;
    23a8:	08 20       	jnz	$+18     	;abs 0x23ba
#endif
        {
            ret_status = wbsl_writeByte((uint8_t *)((uint16_t)i), *data);
    23aa:	0c 46       	mov	r6,	r12	;
    23ac:	6d 44       	mov.b	@r4,	r13	;
    23ae:	b0 12 3c 23 	call	#9020		;#0x233c
    23b2:	3c f0 ff 00 	and	#255,	r12	;#0x00ff
            data += 1;
    23b6:	14 53       	inc	r4		;
    23b8:	09 3c       	jmp	$+20     	;abs 0x23cc
        }
#ifdef RAM_BASED_RFBSL
        else
        {
            ret_status = wbsl_writeWord((uint16_t *)((uint16_t)i), *((uint16_t *)(data)));
    23ba:	0c 46       	mov	r6,	r12	;
    23bc:	2d 44       	mov	@r4,	r13	;
    23be:	b0 12 54 23 	call	#9044		;#0x2354
    23c2:	3c f0 ff 00 	and	#255,	r12	;#0x00ff
            data += 2;
    23c6:	24 53       	incd	r4		;
            i++;
    23c8:	16 53       	inc	r6		;
    23ca:	07 63       	adc	r7		;
        }
#endif
        if (ret_status != WBSL_OPERATION_SUCC)
    23cc:	1c 93       	cmp	#1,	r12	;r3 As==01
    23ce:	09 20       	jnz	$+20     	;abs 0x23e2

    // Make sure that the comparison doesn't overflow at the End of the 16 bit address, make the
    // comparison in 32bit
#pragma GCC diagnostic push
#pragma GCC diagnostic ignored "-Wpointer-to-int-cast"
    for (i = ((uint32_t)startAddr); i < ((uint32_t)startAddr) + ((uint32_t)size); i++)
    23d0:	16 53       	inc	r6		;
    23d2:	07 63       	adc	r7		;
    23d4:	e1 3f       	jmp	$-60     	;abs 0x2398
    23d6:	81 97 00 00 	cmp	r7,	0(r1)	;
    23da:	02 20       	jnz	$+6      	;abs 0x23e0
    23dc:	06 9a       	cmp	r10,	r6	;
    23de:	de 2b       	jnc	$-66     	;abs 0x239c
            return ret_status;
        } // if

    }     // for
#pragma GCC diagnostic pop
    return ret_status;
    23e0:	1c 43       	mov	#1,	r12	;r3 As==01

}
    23e2:	21 52       	add	#4,	r1	;r2 As==10
    23e4:	64 17       	popm	#7,	r10	;16-bit words
    23e6:	30 41       	ret			

000023e8 <wbsl_writePacket>:
// @param       none
// @return      uint8_t		status
//              WBSL_OPERATION_SUCC   Packet successfully written
//              WBSL_OPERATION_FAIL   Write Check failed for some byte of the packet
// *************************************************************************************************
uint8_t wbsl_writePacket(void){
    23e8:	5a 15       	pushm	#6,	r10	;16-bit words

    uint16_t packetSize;
    uint8_t payloadStart;
    uint8_t ret_status = WBSL_OPERATION_SUCC;

    packetSize = RxBuffer[0] - WBSL_PACKET_OVERHEAD;
    23ea:	5a 42 44 2b 	mov.b	&0x2b44,r10	;0x2b44
    payloadStart = FIRST_PAYLOAD_BYTE;

    // Write to flash the packet
    if (RxBuffer[WBSL_OPCODE_OFFSET] == ADDRESS_PACKET_OPCODE)
    23ee:	d2 93 49 2b 	cmp.b	#1,	&0x2b49	;r3 As==01
    23f2:	05 24       	jz	$+12     	;abs 0x23fe

    uint16_t packetSize;
    uint8_t payloadStart;
    uint8_t ret_status = WBSL_OPERATION_SUCC;

    packetSize = RxBuffer[0] - WBSL_PACKET_OVERHEAD;
    23f4:	3a 50 fb ff 	add	#65531,	r10	;#0xfffb
    payloadStart = FIRST_PAYLOAD_BYTE;
    23f8:	35 40 06 00 	mov	#6,	r5	;
    23fc:	0c 3c       	jmp	$+26     	;abs 0x2416

    // Write to flash the packet
    if (RxBuffer[WBSL_OPCODE_OFFSET] == ADDRESS_PACKET_OPCODE)
    {
        ptrMemory = (uint8_t *)((RxBuffer[FIRST_PAYLOAD_BYTE] << 8) + RxBuffer[FIRST_PAYLOAD_BYTE + 1]);
    23fe:	5d 42 4a 2b 	mov.b	&0x2b4a,r13	;0x2b4a
    2402:	47 18 0d 5d 	rpt #8 { rlax.w	r13		;
    2406:	5c 42 4b 2b 	mov.b	&0x2b4b,r12	;0x2b4b
    240a:	0d 5c       	add	r12,	r13	;
    240c:	82 4d 40 2b 	mov	r13,	&0x2b40	;
        packetSize -= 2;   // Substract the address length
    2410:	3a 50 f9 ff 	add	#65529,	r10	;#0xfff9
        payloadStart += 2; // Move Offset to compensate for the Address Length
    2414:	35 42       	mov	#8,	r5	;r2 As==11
        }
#endif
    }

#ifdef RAM_BASED_RFBSL
    wbsl_openFlashForWrite();
    2416:	b0 12 20 23 	call	#8992		;#0x2320

#pragma GCC diagnostic push
#pragma GCC diagnostic ignored "-Wpointer-to-int-cast"

    // Only if there is something to write
    if (packetSize)
    241a:	0a 93       	cmp	#0,	r10	;r3 As==00
    241c:	21 24       	jz	$+68     	;abs 0x2460
    {
#ifdef RAM_BASED_RFBSL
        // Check memory write boundaries Main Memory 0x8000 - 0xFFFF
        if ((uint16_t)ptrMemory < LOWER_BOUND_MAIN_MEMORY || ((uint32_t)ptrMemory + (uint32_t)packetSize) >
    241e:	1c 42 40 2b 	mov	&0x2b40,r12	;0x2b40
    2422:	0c 93       	cmp	#0,	r12	;r3 As==00
    2424:	1f 34       	jge	$+64     	;abs 0x2464
    2426:	08 4a       	mov	r10,	r8	;
    2428:	09 43       	clr	r9		;
    242a:	06 4c       	mov	r12,	r6	;
    242c:	07 4c       	mov	r12,	r7	;
    242e:	4e 18 07 11 	rpt #15 { rrax.w	r7		;
    2432:	0e 48       	mov	r8,	r14	;
    2434:	0e 56       	add	r6,	r14	;
    2436:	0d 49       	mov	r9,	r13	;
    2438:	0d 67       	addc	r7,	r13	;
    243a:	1f 43       	mov	#1,	r15	;r3 As==01
    243c:	0f 9d       	cmp	r13,	r15	;
    243e:	12 28       	jnc	$+38     	;abs 0x2464
    2440:	0d 9f       	cmp	r15,	r13	;
    2442:	02 20       	jnz	$+6      	;abs 0x2448
    2444:	0e 93       	cmp	#0,	r14	;r3 As==00
    2446:	0e 20       	jnz	$+30     	;abs 0x2464
        {
            ret_status = WBSL_OPERATION_FAIL;
        }
        else
        {
            ret_status = wbsl_writeBytes(ptrMemory, packetSize, &RxBuffer[payloadStart]);
    2448:	4d 4a       	mov.b	r10,	r13	;
    244a:	0e 45       	mov	r5,	r14	;
    244c:	3e 50 44 2b 	add	#11076,	r14	;#0x2b44
    2450:	b0 12 68 23 	call	#9064		;#0x2368
    2454:	49 4c       	mov.b	r12,	r9	;
        }

        if (ret_status == WBSL_OPERATION_SUCC)
    2456:	5c 93       	cmp.b	#1,	r12	;r3 As==01
    2458:	06 20       	jnz	$+14     	;abs 0x2466
        {
            ptrMemory += packetSize;
    245a:	82 5a 40 2b 	add	r10,	&0x2b40	;
    245e:	03 3c       	jmp	$+8      	;abs 0x2466
// *************************************************************************************************
uint8_t wbsl_writePacket(void){

    uint16_t packetSize;
    uint8_t payloadStart;
    uint8_t ret_status = WBSL_OPERATION_SUCC;
    2460:	19 43       	mov	#1,	r9	;r3 As==01
    2462:	01 3c       	jmp	$+4      	;abs 0x2466
    2464:	09 43       	clr	r9		;
    }

#pragma GCC diagnostic pop

#ifdef RAM_BASED_RFBSL
    wbsl_lockFlash();
    2466:	b0 12 2e 23 	call	#9006		;#0x232e
#endif

    return ret_status;
}
    246a:	4c 49       	mov.b	r9,	r12	;
    246c:	55 17       	popm	#6,	r10	;16-bit words
    246e:	30 41       	ret			

00002470 <RadioIsr_wbsl>:
// @brief       Retrieves the packet waiting on the RXFIFO of the Radio
// @param       none
// @return      none
// *************************************************************************************************
void RadioIsr_wbsl(void)
{
    2470:	3a 15       	pushm	#4,	r10	;16-bit words
    2472:	21 83       	decd	r1		;
    uint8_t rxBytes;
    uint8_t tL;
    uint8_t *tmpRxBuffer;
    volatile uint16_t coreIntSource __attribute__((unused)) = RF1AIV;
    2474:	91 42 38 0f 00 00 	mov	&0x0f38,0(r1)	;0x0f38

    // Clear RX Interrupt Flag
    RF1AIFG &= ~BIT9;
    247a:	b2 f0 ff fd 32 0f 	and	#65023,	&0x0f32	;#0xfdff

    // We should only be here in RX mode, not in TX mode, nor if RX mode was turned on during CCA
    if (wbslMode_flag != WBSL_RX_MODE)
    2480:	5c 42 3d 2b 	mov.b	&0x2b3d,r12	;0x2b3d
    2484:	6c 93       	cmp.b	#2,	r12	;r3 As==10
    2486:	54 20       	jnz	$+170    	;abs 0x2530
    {
        return;
    }

    // Clean Buffer to help protect against spurios frames
    memset(RxBuffer, 0x00, sizeof(RxBuffer));
    2488:	3c 40 44 2b 	mov	#11076,	r12	;#0x2b44
    248c:	0d 43       	clr	r13		;
    248e:	3e 40 4e 00 	mov	#78,	r14	;#0x004e
    2492:	b0 12 5c 2a 	call	#10844		;#0x2a5c

    // Use a pointer to move through the Buffer
    tmpRxBuffer = RxBuffer;

    // Read the number of bytes ready on the FIFO
    rxBytes = ReadSingleReg(RXBYTES);
    2496:	3a 40 c4 21 	mov	#8644,	r10	;#0x21c4
    249a:	7c 40 3b 00 	mov.b	#59,	r12	;#0x003b
    249e:	8a 12       	call	r10		;
    24a0:	48 4c       	mov.b	r12,	r8	;

    do {
        tL = rxBytes;
        rxBytes = ReadSingleReg(RXBYTES);
    24a2:	7c 40 3b 00 	mov.b	#59,	r12	;#0x003b
    24a6:	8a 12       	call	r10		;
    24a8:	49 4c       	mov.b	r12,	r9	;
    } while (tL != rxBytes);                 // Due to a chip bug, the RXBYTES has to read the same
    24aa:	4c 98       	cmp.b	r8,	r12	;
    24ac:	02 24       	jz	$+6      	;abs 0x24b2
    24ae:	08 49       	mov	r9,	r8	;
    24b0:	f8 3f       	jmp	$-14     	;abs 0x24a2
                                             // value twice for it to be correct

    if (rxBytes == 0)                        // Check if the RX FIFO is empty, this may happen if
    24b2:	09 93       	cmp	#0,	r9	;r3 As==00
    24b4:	3d 24       	jz	$+124    	;abs 0x2530
                                             // when address doesn't match
    {
        return;
    }

    *tmpRxBuffer++ = ReadSingleReg(RXFIFO);
    24b6:	7c 40 3f 00 	mov.b	#63,	r12	;#0x003f
    24ba:	b0 12 c4 21 	call	#8644		;#0x21c4
    24be:	c2 4c 44 2b 	mov.b	r12,	&0x2b44	;
    RxBufferLength = *(tmpRxBuffer - 1) + 2; // Add 2 for the status bytes which are appended by the
    24c2:	6c 53       	incd.b	r12		;
    24c4:	c2 4c 42 2b 	mov.b	r12,	&0x2b42	;

    // Check if number of bytes in Fifo exceed the FIFO Size, if so, assume FIFO overflow due to
    // something
    // gone wrong with radio, and the only way to fix it, is to force IDLE mode and then back to RX
    // Mode
    if (rxBytes > MAX_RXFIFO_SIZE)
    24c8:	7c 40 40 00 	mov.b	#64,	r12	;#0x0040
    24cc:	4c 99       	cmp.b	r9,	r12	;
    24ce:	05 2c       	jc	$+12     	;abs 0x24da
    {
        ReceiveOff();
    24d0:	b0 12 9e 21 	call	#8606		;#0x219e
        ReceiveOn();
    24d4:	b0 12 8c 21 	call	#8588		;#0x218c
        return;
    24d8:	2b 3c       	jmp	$+88     	;abs 0x2530
    24da:	37 40 45 2b 	mov	#11077,	r7	;#0x2b45
    }
    // else: everything matches continue

    //Copy Rest of packet
    while (RxBufferLength > 1){
    24de:	5c 43       	mov.b	#1,	r12	;r3 As==01
    24e0:	5c 92 42 2b 	cmp.b	&0x2b42,r12	;0x2b42
    24e4:	1e 2c       	jc	$+62     	;abs 0x2522

        rxBytes = ReadSingleReg(RXBYTES);
    24e6:	7c 40 3b 00 	mov.b	#59,	r12	;#0x003b
    24ea:	8a 12       	call	r10		;
    24ec:	49 4c       	mov.b	r12,	r9	;

        do {
            tL = rxBytes;
            rxBytes = ReadSingleReg(RXBYTES);
    24ee:	7c 40 3b 00 	mov.b	#59,	r12	;#0x003b
    24f2:	8a 12       	call	r10		;
    24f4:	4d 4c       	mov.b	r12,	r13	;
        } while (tL != rxBytes); // Due to a chip bug, the RXBYTES has to read the same value twice
    24f6:	4c 99       	cmp.b	r9,	r12	;
    24f8:	02 24       	jz	$+6      	;abs 0x24fe
    24fa:	09 4d       	mov	r13,	r9	;
    24fc:	f8 3f       	jmp	$-14     	;abs 0x24ee
    24fe:	09 47       	mov	r7,	r9	;
    2500:	48 4d       	mov.b	r13,	r8	;
    2502:	48 57       	add.b	r7,	r8	;
    2504:	07 49       	mov	r9,	r7	;
    2506:	4c 48       	mov.b	r8,	r12	;
    2508:	4c 89       	sub.b	r9,	r12	;
                                 // for it to be correct

        while (rxBytes > 1)
    250a:	5d 43       	mov.b	#1,	r13	;r3 As==01
    250c:	4d 9c       	cmp.b	r12,	r13	;
    250e:	e7 2f       	jc	$-48     	;abs 0x24de
        {
            *tmpRxBuffer++ = ReadSingleReg(RXFIFO);
    2510:	7c 40 3f 00 	mov.b	#63,	r12	;#0x003f
    2514:	8a 12       	call	r10		;
    2516:	c9 4c 00 00 	mov.b	r12,	0(r9)	;
            RxBufferLength--; rxBytes--;
    251a:	f2 53 42 2b 	add.b	#-1,	&0x2b42	;r3 As==11
    251e:	19 53       	inc	r9		;
    2520:	f1 3f       	jmp	$-28     	;abs 0x2504
        }
    }
    *tmpRxBuffer++ = ReadSingleReg(RXFIFO);
    2522:	7c 40 3f 00 	mov.b	#63,	r12	;#0x003f
    2526:	8a 12       	call	r10		;
    2528:	c7 4c 00 00 	mov.b	r12,	0(r7)	;

    // Signal main program that packet has been received and ready in RxBuffer
    rxtx_flag = WBSL_RXTX_RECEIVED;
    252c:	d2 43 3c 2b 	mov.b	#1,	&0x2b3c	;r3 As==01
}
    2530:	21 53       	incd	r1		;
    2532:	37 17       	popm	#4,	r10	;16-bit words
    2534:	30 41       	ret			

00002536 <massEraseFlash>:
#ifdef RAM_BASED_RFBSL
void massEraseFlash(void)
{
    volatile char *Flash_ptr;                           //Flash pointer

    while (FCTL3 & BUSY) ;
    2536:	92 b3 44 01 	bit	#1,	&0x0144	;r3 As==01
    253a:	fd 23       	jnz	$-4      	;abs 0x2536
    FCTL3 = FWKEY;
    253c:	b2 40 00 a5 44 01 	mov	#42240,	&0x0144	;#0xa500
    while (FCTL3 & BUSY) ;
    2542:	1c 42 44 01 	mov	&0x0144,r12	;0x0144
    2546:	1c f3       	and	#1,	r12	;r3 As==01
    2548:	0c 93       	cmp	#0,	r12	;r3 As==00
    254a:	fb 23       	jnz	$-8      	;abs 0x2542
    Flash_ptr = (char *)INTERRUPT_VECTOR_START_ADDRESS; //Interrupt Vector Start
    FCTL1 = FWKEY + MERAS + ERASE;                      // Set Mass Erase Bits
    254c:	b2 40 06 a5 40 01 	mov	#42246,	&0x0140	;#0xa506
    *Flash_ptr = 0;
    2552:	c2 4c e0 ff 	mov.b	r12,	&0xffe0	;
    while (FCTL3 & BUSY) ;
    2556:	92 b3 44 01 	bit	#1,	&0x0144	;r3 As==01
    255a:	fd 23       	jnz	$-4      	;abs 0x2556
    FCTL3 = FWKEY +  LOCK;
    255c:	b2 40 10 a5 44 01 	mov	#42256,	&0x0144	;#0xa510
}
    2562:	30 41       	ret			

00002564 <init_watch>:


    // Initialize Clocks
    // ---------------------------------------------------------------------
    // Enable 32kHz ACLK
    P5SEL |= 0x03;                     // Select XIN, XOUT on P5.0 and P5.1
    2564:	f2 d0 03 00 4a 02 	bis.b	#3,	&0x024a	;
    UCSCTL6 &= ~(XT1OFF + XT1DRIVE_3); // XT1 On, Lowest drive strength
    256a:	b2 f0 3e ff 6c 01 	and	#65342,	&0x016c	;#0xff3e
    UCSCTL6 |= XCAP_3;                 // Internal load cap
    2570:	b2 d0 0c 00 6c 01 	bis	#12,	&0x016c	;#0x000c

    UCSCTL3 = SELA__XT1CLK;            // Select XT1 as FLL reference
    2576:	82 43 66 01 	mov	#0,	&0x0166	;r3 As==00
    UCSCTL4 = SELA__XT1CLK | SELS__DCOCLKDIV | SELM__DCOCLKDIV;
    257a:	b2 40 44 00 68 01 	mov	#68,	&0x0168	;#0x0044
    // ---------------------------------------------------------------------
    // Configure CPU clock for 12MHz
    _BIS_SR(SCG0);                     // Disable the FLL control loop
    2580:	32 d0 40 00 	bis	#64,	r2	;#0x0040
    2584:	03 43       	nop			
    UCSCTL0 = 0x0000;                  // Set lowest possible DCOx, MODx
    2586:	82 43 60 01 	mov	#0,	&0x0160	;r3 As==00
    UCSCTL1 = DCORSEL_5;               // Select suitable range
    258a:	b2 40 50 00 62 01 	mov	#80,	&0x0162	;#0x0050
    UCSCTL2 = FLLD_1 + 0x16E;          // Set DCO Multiplier
    2590:	b2 40 6e 11 64 01 	mov	#4462,	&0x0164	;#0x116e
    _BIC_SR(SCG0);                     // Enable the FLL control loop
    2596:	32 c0 40 00 	bic	#64,	r2	;#0x0040
    259a:	03 43       	nop			

    // Worst-case settling time for the DCO when the DCO range bits have been
    // changed is n x 32 x 32 x f_MCLK / f_FLL_reference. See UCS chapter in 5xx
    // UG for optimization.
    // 32 x 32 x 8 MHz / 32,768 Hz = 250000 = MCLK cycles for DCO to settle
    __delay_cycles(250000);
    259c:	1d 14       	pushm.a	#2,	r13	;20-bit words
    259e:	3d 40 80 8b 	mov	#35712,	r13	;#0x8b80
    25a2:	0e 43       	clr	r14		;
    25a4:	1d 83       	dec	r13		;
    25a6:	0e 73       	sbc	r14		;
    25a8:	fd 23       	jnz	$-4      	;abs 0x25a4
    25aa:	0d 93       	cmp	#0,	r13	;r3 As==00
    25ac:	fb 23       	jnz	$-8      	;abs 0x25a4
    25ae:	1c 16       	popm.a	#2,	r13	;20-bit words
    25b0:	03 43       	nop			

    // Loop until XT1 & DCO stabilizes, use do-while to insure that
    // body is executed at least once
    do
    {
        UCSCTL7 &= ~(XT2OFFG + XT1LFOFFG + XT1HFOFFG + DCOFFG);
    25b2:	b2 f0 f0 ff 6e 01 	and	#65520,	&0x016e	;#0xfff0
        SFRIFG1 &= ~OFIFG;             // Clear fault flags
    25b8:	a2 c3 02 01 	bic	#2,	&0x0102	;r3 As==10
    } while ((SFRIFG1 & OFIFG));
    25bc:	a2 b3 02 01 	bit	#2,	&0x0102	;r3 As==10
    25c0:	f8 23       	jnz	$-14     	;abs 0x25b2

#ifdef RAM_BASED_RFBSL
    lcd_init();
    25c2:	b0 12 8c 1f 	call	#8076		;#0x1f8c
#endif

}
    25c6:	30 41       	ret			

000025c8 <reset_wbsl>:
// @return      none
// *************************************************************************************************
void reset_wbsl(void)
{
    // No connection
    sRFwbsl.mode = WBSL_OFF;
    25c8:	c2 43 92 2b 	mov.b	#0,	&0x2b92	;r3 As==00

    //Reset the progress variables
    wbsl_progress = 0;
    25cc:	c2 43 3b 2b 	mov.b	#0,	&0x2b3b	;r3 As==00
    currentPacket = 0;
    25d0:	82 43 34 2b 	mov	#0,	&0x2b34	;r3 As==00
    totalPackets = 0;
    25d4:	82 43 36 2b 	mov	#0,	&0x2b36	;r3 As==00

    // Reset the number of retries to send the ACK
    wbsl_number_of_retries = 0;
    25d8:	c2 43 39 2b 	mov.b	#0,	&0x2b39	;r3 As==00

    // Clear init flag to send the total number of packets on the first transmission packet
    initOk = 0;
    25dc:	c2 43 38 2b 	mov.b	#0,	&0x2b38	;r3 As==00
    RF1AIFG = 0;   // Clear Radio Flags
    25e0:	82 43 32 0f 	mov	#0,	&0x0f32	;r3 As==00
}
    25e4:	30 41       	ret			

000025e6 <wbsl_resetTimer>:
// @return      none
// *************************************************************************************************
void wbsl_resetTimer(void){

    // Reset IRQ flag
    TA0CCTL1 &= ~CCIFG;
    25e6:	92 c3 44 03 	bic	#1,	&0x0344	;r3 As==01

    // Stop Timer0
    TA0CTL &= ~(MC1 + MC0);
    25ea:	b2 f0 cf ff 40 03 	and	#65487,	&0x0340	;#0xffcf

    // Set Timer0 count register to 0x0000
    TA0R = 0;
    25f0:	82 43 50 03 	mov	#0,	&0x0350	;r3 As==00
}
    25f4:	30 41       	ret			

000025f6 <wbsl_setTimer>:
// @return      none
// *************************************************************************************************
void wbsl_setTimer(uint16_t ticks)
{

    if (ticks > 32767)
    25f6:	0c 93       	cmp	#0,	r12	;r3 As==00
    25f8:	02 34       	jge	$+6      	;abs 0x25fe
        ticks = 32767;
    25fa:	3c 40 ff 7f 	mov	#32767,	r12	;#0x7fff

    // Update CCR
    TA0CCR1 = ticks;
    25fe:	82 4c 54 03 	mov	r12,	&0x0354	;

    // Reset IRQ flag
    TA0CCTL1 &= ~CCIFG;
    2602:	92 c3 44 03 	bic	#1,	&0x0344	;r3 As==01

    // Clear and start timer now
    // Continuous mode: Count to 0xFFFF and restart from 0 again - 1sec timing will be generated by
    // ISR
    TA0CTL   |= TASSEL0 + MC1 + TACLR;
    2606:	b2 d0 24 01 40 03 	bis	#292,	&0x0340	;#0x0124

}
    260c:	30 41       	ret			

0000260e <transmitPacket>:
// @param       uint8_t *buffer	Buffer containing the bytes to be transmitted
//		uint8_t length       Length of the buffer to be transmitted
// @return      none
// *************************************************************************************************
void transmitPacket(uint8_t *buffer, uint8_t length)
{
    260e:	4a 15       	pushm	#5,	r10	;16-bit words
    2610:	09 4c       	mov	r12,	r9	;
    2612:	4a 4d       	mov.b	r13,	r10	;
#ifdef CCA
    uint8_t ccaRetries;
    uint8_t x;
#endif
    // Turn off receiver
    ReceiveOff();
    2614:	b0 12 9e 21 	call	#8606		;#0x219e
    // Write the Buffer to the Transmit FIFO
    WriteBurstReg(RF_TXFIFOWR, buffer, length);
    2618:	7c 40 7f 00 	mov.b	#127,	r12	;#0x007f
    261c:	0d 49       	mov	r9,	r13	;
    261e:	4e 4a       	mov.b	r10,	r14	;
    2620:	b0 12 d2 22 	call	#8914		;#0x22d2
    2624:	3a 40 05 00 	mov	#5,	r10	;
        /* Radio must be in RX mode for CCA to happen.
         * Otherwise it will transmit without CCA happening.
         * We don't use the RxModeOn because it turns the RX interrupt
         * which we don't need
         */
        Strobe(RF_SRX);
    2628:	38 40 3a 22 	mov	#8762,	r8	;#0x223a
        Strobe(RF_STX);      // Strobe STX    to initiate transfer

        /*   Found out that we need a delay of atleast 25 us on CC1100 to see
         * the PA_PD signal change. Hence keeping the same for CC430
         */
        wbsl_setTimer(25);
    262c:	37 40 f6 25 	mov	#9718,	r7	;#0x25f6
        while (!(TA0CCTL1 & CCIFG)) ;
        wbsl_resetTimer();
    2630:	36 40 e6 25 	mov	#9702,	r6	;#0x25e6
        /* Radio must be in RX mode for CCA to happen.
         * Otherwise it will transmit without CCA happening.
         * We don't use the RxModeOn because it turns the RX interrupt
         * which we don't need
         */
        Strobe(RF_SRX);
    2634:	7c 40 34 00 	mov.b	#52,	r12	;#0x0034
    2638:	88 12       	call	r8		;
    263a:	39 40 3a 22 	mov	#8762,	r9	;#0x223a

        //Wait for valid RSSI
        while (!(RF1AIN & BV(1))) ;
    263e:	a2 b3 30 0f 	bit	#2,	&0x0f30	;r3 As==10
    2642:	fd 27       	jz	$-4      	;abs 0x263e
         *  is used to capture the transition that indicates a transmit was started.
         *  The pin level cannot be used to indicate transmit success as timing may
         *  prevent the transition from being detected.  The interrupt latch captures
         *  the event regardless of timing.
         */
        RF1AIFG &= ~BV(0);
    2644:	92 c3 32 0f 	bic	#1,	&0x0f32	;r3 As==01

        Strobe(RF_STX);      // Strobe STX    to initiate transfer
    2648:	7c 40 35 00 	mov.b	#53,	r12	;#0x0035
    264c:	89 12       	call	r9		;

        /*   Found out that we need a delay of atleast 25 us on CC1100 to see
         * the PA_PD signal change. Hence keeping the same for CC430
         */
        wbsl_setTimer(25);
    264e:	3c 40 19 00 	mov	#25,	r12	;#0x0019
    2652:	87 12       	call	r7		;
        while (!(TA0CCTL1 & CCIFG)) ;
    2654:	92 b3 44 03 	bit	#1,	&0x0344	;r3 As==01
    2658:	fd 27       	jz	$-4      	;abs 0x2654
        wbsl_resetTimer();
    265a:	86 12       	call	r6		;

        if (RF1AIFG & BV(0))
    265c:	92 b3 32 0f 	bit	#1,	&0x0f32	;r3 As==01
    2660:	06 24       	jz	$+14     	;abs 0x266e
             *    Clear Channel Assessment passed.
             *   ----------------------------------
             */

            //Clear the PA_PD pin interrupt flag.
            RF1AIFG &= ~BV(0);
    2662:	92 c3 32 0f 	bic	#1,	&0x0f32	;r3 As==01

            /* wait for transmit to complete */
            while (!(RF1AIN & BV(0))) ;
    2666:	92 b3 30 0f 	bit	#1,	&0x0f30	;r3 As==01
    266a:	fd 27       	jz	$-4      	;abs 0x2666
    266c:	19 3c       	jmp	$+52     	;abs 0x26a0
             *    Clear Channel Assessment failed.
             *   ----------------------------------
             */
            // Turn off radio to save power
            do {
                x = Strobe(RF_SIDLE);
    266e:	7c 40 36 00 	mov.b	#54,	r12	;#0x0036
    2672:	89 12       	call	r9		;
            } while (x & 0x70);
    2674:	7c b0 70 00 	bit.b	#112,	r12	;#0x0070
    2678:	fa 23       	jnz	$-10     	;abs 0x266e
            /* Wait for XOSC to be stable and radio in IDLE state */

            // Flush receive FIFO of residual Data
            Strobe(RF_SFRX);
    267a:	7c 40 3a 00 	mov.b	#58,	r12	;#0x003a
    267e:	b0 12 3a 22 	call	#8762		;#0x223a
    2682:	7a 53       	add.b	#-1,	r10	;r3 As==11
    2684:	3a f0 ff 00 	and	#255,	r10	;#0x00ff

            if (ccaRetries != 0)
    2688:	0a 93       	cmp	#0,	r10	;r3 As==00
    268a:	0d 24       	jz	$+28     	;abs 0x26a6
            {
                /* delay for a number of us */
                wbsl_setTimer(15);
    268c:	3c 40 0f 00 	mov	#15,	r12	;#0x000f
    2690:	b0 12 f6 25 	call	#9718		;#0x25f6
                while (!(TA0CCTL1 & CCIFG)) ;
    2694:	92 b3 44 03 	bit	#1,	&0x0344	;r3 As==01
    2698:	fd 27       	jz	$-4      	;abs 0x2694
                wbsl_resetTimer();
    269a:	b0 12 e6 25 	call	#9702		;#0x25e6
            {
                /* set return value for failed transmit and break */
                return;
            }
        }
    }
    269e:	ca 3f       	jmp	$-106    	;abs 0x2634
    // Clear the interrupt flag
    RF1AIFG &= ~BIT9;
#endif // CCA

    // Flush transmit FIFO, Radio is already in IDLE state due to Register configuration
    Strobe(RF_SFTX);
    26a0:	7c 40 3b 00 	mov.b	#59,	r12	;#0x003b
    26a4:	89 12       	call	r9		;
}
    26a6:	46 17       	popm	#5,	r10	;16-bit words
    26a8:	30 41       	ret			

000026aa <wbsl_link>:
// @return      uint8_t link_Status
//              WBSL_LINK_SUCC   The watch found an AP and they're both linked
//              WBSL_LINK_FAIL   The watch didn't find any AP which responded to
//                               the discovery packet
// *************************************************************************************************
uint8_t wbsl_link(void){
    26aa:	0a 15       	pushm	#1,	r10	;16-bit words
    //uint8_t temp_PKTCTRL1;
    // Already Set
    //discoveryReply[AP_ADDRESS_OFFSET_TX] = 0x00;   // Broadcast so that any AP listening receives
    // the package

    transmitPacket((uint8_t*)discoveryReply, sizeof discoveryReply);
    26ac:	3c 40 1a 2b 	mov	#11034,	r12	;#0x2b1a
    26b0:	7d 42       	mov.b	#8,	r13	;r2 As==11
    26b2:	b0 12 0e 26 	call	#9742		;#0x260e

    // Activate RX Mode to wait for ACK of pairing from the AP
    ReceiveOn();
    26b6:	b0 12 8c 21 	call	#8588		;#0x218c

    // Wait for a packet to be received or timeout
    wbsl_setTimer(TIMEOUT_FOR_ACK);
    26ba:	3c 40 00 40 	mov	#16384,	r12	;#0x4000
    26be:	b0 12 f6 25 	call	#9718		;#0x25f6
    //_BIS_SR(LPM3_bits);

    while (!(TA0CCTL1 & CCIFG) && rxtx_flag != WBSL_RXTX_RECEIVED)
    {
        if (RF1AIFG & BIT9)   // Check for the SYNC WORD detected flag
            RadioIsr_wbsl();  // Call the ISR to retrieve the received packet
    26c2:	3a 40 70 24 	mov	#9328,	r10	;#0x2470
    wbsl_setTimer(TIMEOUT_FOR_ACK);

    // Go to LPM3 and wait for either the interrupt from the timer or the RX Interrupt
    //_BIS_SR(LPM3_bits);

    while (!(TA0CCTL1 & CCIFG) && rxtx_flag != WBSL_RXTX_RECEIVED)
    26c6:	92 b3 44 03 	bit	#1,	&0x0344	;r3 As==01
    26ca:	0a 20       	jnz	$+22     	;abs 0x26e0
    26cc:	5c 42 3c 2b 	mov.b	&0x2b3c,r12	;0x2b3c
    26d0:	5c 93       	cmp.b	#1,	r12	;r3 As==01
    26d2:	06 24       	jz	$+14     	;abs 0x26e0
    {
        if (RF1AIFG & BIT9)   // Check for the SYNC WORD detected flag
    26d4:	b2 b0 00 02 32 0f 	bit	#512,	&0x0f32	;#0x0200
    26da:	f5 27       	jz	$-20     	;abs 0x26c6
            RadioIsr_wbsl();  // Call the ISR to retrieve the received packet
    26dc:	8a 12       	call	r10		;
    26de:	f3 3f       	jmp	$-24     	;abs 0x26c6
        //Here we should sleep to wait for either Timeout or Radio
        //_BIS_SR(LPM0_bits);
    }

    // Reset the timer so that next time it starts from fresh state.
    wbsl_resetTimer();
    26e0:	b0 12 e6 25 	call	#9702		;#0x25e6

    // Turn radio off during the decoding of the package
    ReceiveOff();
    26e4:	b0 12 9e 21 	call	#8606		;#0x219e

    if (rxtx_flag == WBSL_RXTX_RECEIVED)
    26e8:	5c 42 3c 2b 	mov.b	&0x2b3c,r12	;0x2b3c
    26ec:	5c 93       	cmp.b	#1,	r12	;r3 As==01
    26ee:	02 24       	jz	$+6      	;abs 0x26f4
//              WBSL_LINK_FAIL   The watch didn't find any AP which responded to
//                               the discovery packet
// *************************************************************************************************
uint8_t wbsl_link(void){
    uint8_t crcOk = 0;
    uint8_t retStatus = WBSL_LINK_FAIL;
    26f0:	0c 43       	clr	r12		;
    26f2:	11 3c       	jmp	$+36     	;abs 0x2716
    ReceiveOff();

    if (rxtx_flag == WBSL_RXTX_RECEIVED)
    {
        // Clear RX Flag
        rxtx_flag = 0;
    26f4:	c2 43 3c 2b 	mov.b	#0,	&0x2b3c	;r3 As==00

        crcOk = RxBuffer[RxBuffer[0] + WBSL_CRC_STATUS_OFFSET] & CRC_STATUS; //CRC status is
    26f8:	5c 42 44 2b 	mov.b	&0x2b44,r12	;0x2b44
    26fc:	3c 50 44 2b 	add	#11076,	r12	;#0x2b44
    2700:	5c 4c 02 00 	mov.b	2(r12),	r12	;
                                                                             // appended at the end
                                                                             // of RXFIFO

        if (                                                                 //RxBuffer[ED_ADDRESS_OFFSET_RX]!=
    2704:	d2 93 47 2b 	cmp.b	#1,	&0x2b47	;r3 As==01
    2708:	f3 23       	jnz	$-24     	;abs 0x26f0
                                                                             // WBSL_ED_ADDRESS ||
            RxBuffer[LINK_ACK_OFFSET] != WBSL_LINK_SUCC      ||
    270a:	4c 93       	cmp.b	#0,	r12	;r3 As==00
    270c:	f1 37       	jge	$-28     	;abs 0x26f0
            return retStatus;
        }
        else
        {
            //Save AP_address
            AP_address = RxBuffer[AP_ADDRESS_OFFSET_RX];
    270e:	d2 42 46 2b 3a 2b 	mov.b	&0x2b46,&0x2b3a	;0x2b46

            // Set the Link as succesfull so the actual communication can start
            retStatus = WBSL_LINK_SUCC;
    2714:	1c 43       	mov	#1,	r12	;r3 As==01
        }
    }
    return retStatus;
}
    2716:	0a 17       	popm	#1,	r10	;16-bit words
    2718:	30 41       	ret			

0000271a <wbsl_replyAck>:
// @brief       Replies with an ACK or NACK to the AP
// @param       uint8_t status          ACK or NACK
//              uint16_t packetNummer   The packet number for which the ACK is
// @return      none
// *************************************************************************************************
void wbsl_replyAck(uint8_t status, uint16_t packetNummer){
    271a:	1a 15       	pushm	#2,	r10	;16-bit words
    271c:	49 4c       	mov.b	r12,	r9	;
    271e:	0a 4d       	mov	r13,	r10	;
    // Delay to let AP Dongle be in RX Mode
    // Set the timeout
    wbsl_setTimer(CONV_US_TO_TICKS(300));
    2720:	3c 40 09 00 	mov	#9,	r12	;
    2724:	b0 12 f6 25 	call	#9718		;#0x25f6
    // Wait for a timeout
    while (!(TA0CCTL1 & CCIFG)) ;
    2728:	92 b3 44 03 	bit	#1,	&0x0344	;r3 As==01
    272c:	fd 27       	jz	$-4      	;abs 0x2728
    // Reset the timer
    wbsl_resetTimer();
    272e:	b0 12 e6 25 	call	#9702		;#0x25e6
    //Fill the ACK Reply Buffer
    ackReply[AP_ADDRESS_OFFSET_TX] = AP_address;
    2732:	d2 42 3a 2b 15 2b 	mov.b	&0x2b3a,&0x2b15	;0x2b3a
    //ackReply[ED_ADDRESS_OFFSET_TX] = WBSL_ED_ADDRESS;  // This is put on declaration
    ackReply[ED_ADDRESS_OFFSET_TX + 1] = status;
    2738:	c2 49 17 2b 	mov.b	r9,	&0x2b17	;

    ackReply[ED_ADDRESS_OFFSET_TX + 2] = (packetNummer >> 8) & 0x7F;
    273c:	0c 4a       	mov	r10,	r12	;
    273e:	5c 0f       	rrum	#4,	r12	;
    2740:	5c 0f       	rrum	#4,	r12	;
    2742:	7c f0 7f 00 	and.b	#127,	r12	;#0x007f
    2746:	c2 4c 18 2b 	mov.b	r12,	&0x2b18	;
    ackReply[ED_ADDRESS_OFFSET_TX + 3] = packetNummer;
    274a:	c2 4a 19 2b 	mov.b	r10,	&0x2b19	;

    transmitPacket((uint8_t*)ackReply, sizeof(ackReply));
    274e:	3c 40 14 2b 	mov	#11028,	r12	;#0x2b14
    2752:	7d 40 06 00 	mov.b	#6,	r13	;
    2756:	b0 12 0e 26 	call	#9742		;#0x260e

}
    275a:	19 17       	popm	#2,	r10	;16-bit words
    275c:	30 41       	ret			

0000275e <wbsl_receivePackets>:
// @param       none
// @return      uint8_t status
//              WBSL_ERROR      No packet was received or error during writing
//              WBSL_SUCC       Packet was received and written to memory
// *************************************************************************************************
uint8_t wbsl_receivePackets(void){
    275e:	2a 15       	pushm	#3,	r10	;16-bit words
    uint8_t crcOk = 0;
    uint16_t tempCurrentPacket = 0;
    uint8_t retStatus = WBSL_LINK_FAIL;

    // Increment the number of retries to send the ACK
    wbsl_number_of_retries++;
    2760:	5c 42 39 2b 	mov.b	&0x2b39,r12	;0x2b39
    2764:	5c 53       	inc.b	r12		;
    2766:	c2 4c 39 2b 	mov.b	r12,	&0x2b39	;

    // Check if too many retries for one packet have been already made
    if (wbsl_number_of_retries >= WBSL_MAXIMUM_RETRIES)
    276a:	6d 42       	mov.b	#4,	r13	;r2 As==10
    276c:	4d 9c       	cmp.b	r12,	r13	;
    276e:	04 2c       	jc	$+10     	;abs 0x2778
    {
        // Trigger the stop of the WBSL Update procedure
        wbsl_flag = WBSL_TRIGGER_STOP;
    2770:	f2 40 20 00 3e 2b 	mov.b	#32,	&0x2b3e	;#0x0020
    2776:	52 3c       	jmp	$+166    	;abs 0x281c
        return retStatus;
    }
    // Activate RX Mode to listen to new packets
    ReceiveOn();
    2778:	b0 12 8c 21 	call	#8588		;#0x218c

    // Set the timeout so we don't get stuck waiting for a packet
    wbsl_setTimer(TIMEOUT_FOR_ACK);
    277c:	3c 40 00 40 	mov	#16384,	r12	;#0x4000
    2780:	b0 12 f6 25 	call	#9718		;#0x25f6
    // Wait for a packet to be received or timeout
    while (!(TA0CCTL1 & CCIFG) && rxtx_flag != WBSL_RXTX_RECEIVED)
    {
        // Check the SYNC Word detected flag
        if (RF1AIFG & BIT9)
            RadioIsr_wbsl();
    2784:	3a 40 70 24 	mov	#9328,	r10	;#0x2470

    // Set the timeout so we don't get stuck waiting for a packet
    wbsl_setTimer(TIMEOUT_FOR_ACK);

    // Wait for a packet to be received or timeout
    while (!(TA0CCTL1 & CCIFG) && rxtx_flag != WBSL_RXTX_RECEIVED)
    2788:	92 b3 44 03 	bit	#1,	&0x0344	;r3 As==01
    278c:	0a 20       	jnz	$+22     	;abs 0x27a2
    278e:	5c 42 3c 2b 	mov.b	&0x2b3c,r12	;0x2b3c
    2792:	5c 93       	cmp.b	#1,	r12	;r3 As==01
    2794:	06 24       	jz	$+14     	;abs 0x27a2
    {
        // Check the SYNC Word detected flag
        if (RF1AIFG & BIT9)
    2796:	b2 b0 00 02 32 0f 	bit	#512,	&0x0f32	;#0x0200
    279c:	f5 27       	jz	$-20     	;abs 0x2788
            RadioIsr_wbsl();
    279e:	8a 12       	call	r10		;
    27a0:	f3 3f       	jmp	$-24     	;abs 0x2788
        //Here we should sleep to wait for either Timeout or Radio
        //_BIS_SR(LPM0_bits);
    }

    // Reset the timer so that next time it starts from fresh state.
    wbsl_resetTimer();
    27a2:	b0 12 e6 25 	call	#9702		;#0x25e6
    // Turn radio off during the decoding of the package
    ReceiveOff();
    27a6:	b0 12 9e 21 	call	#8606		;#0x219e

    // If the was no packet received, then a TIMEOUT happened, we need to send
    // an ack for previous pkt, but just in the case it was a regular packet and not a init Packet
    if (rxtx_flag != WBSL_RXTX_RECEIVED && initOk)
    27aa:	5c 42 3c 2b 	mov.b	&0x2b3c,r12	;0x2b3c
    27ae:	5c 93       	cmp.b	#1,	r12	;r3 As==01
    27b0:	0a 24       	jz	$+22     	;abs 0x27c6
    27b2:	c2 93 38 2b 	cmp.b	#0,	&0x2b38	;r3 As==00
    27b6:	07 24       	jz	$+16     	;abs 0x27c6
    {
        //Reply Positive ACK for previous packet, in case AP didn't receive last ACK
        wbsl_replyAck(WBSL_LINK_SUCC, currentPacket - 1);
    27b8:	5c 43       	mov.b	#1,	r12	;r3 As==01
    27ba:	1d 42 34 2b 	mov	&0x2b34,r13	;0x2b34
    27be:	3d 53       	add	#-1,	r13	;r3 As==11
    27c0:	b0 12 1a 27 	call	#10010		;#0x271a
    27c4:	2b 3c       	jmp	$+88     	;abs 0x281c
    }
    else if (rxtx_flag == WBSL_RXTX_RECEIVED)
    27c6:	58 42 3c 2b 	mov.b	&0x2b3c,r8	;0x2b3c
    27ca:	18 93       	cmp	#1,	r8	;r3 As==01
    27cc:	27 20       	jnz	$+80     	;abs 0x281c
    {
        // Clear RX Flag
        rxtx_flag = 0;
    27ce:	c2 43 3c 2b 	mov.b	#0,	&0x2b3c	;r3 As==00

        crcOk = RxBuffer[RxBuffer[0] + WBSL_CRC_STATUS_OFFSET] & CRC_STATUS; //CRC status is
    27d2:	5c 42 44 2b 	mov.b	&0x2b44,r12	;0x2b44
    27d6:	3c 50 44 2b 	add	#11076,	r12	;#0x2b44
    27da:	5a 4c 02 00 	mov.b	2(r12),	r10	;
                                                                             // appended at the end
                                                                             // of RXFIFO

        if (                                                                 //RxBuffer[ED_ADDRESS_OFFSET_RX]
    27de:	d2 92 3a 2b 46 2b 	cmp.b	&0x2b3a,&0x2b46	;0x2b3a
    27e4:	1b 20       	jnz	$+56     	;abs 0x281c
    else if (rxtx_flag == WBSL_RXTX_RECEIVED)
    {
        // Clear RX Flag
        rxtx_flag = 0;

        crcOk = RxBuffer[RxBuffer[0] + WBSL_CRC_STATUS_OFFSET] & CRC_STATUS; //CRC status is
    27e6:	7a f0 80 ff 	and.b	#65408,	r10	;#0xff80
    27ea:	3a f0 ff 00 	and	#255,	r10	;#0x00ff
    27ee:	39 40 1a 27 	mov	#10010,	r9	;#0x271a
                                                                             // the AP we're linked
                                                                             // to
        {
            // If we're not initialized for communication, this should be an Init packet, treat it
            // as such
            if (!initOk)
    27f2:	c2 93 38 2b 	cmp.b	#0,	&0x2b38	;r3 As==00
    27f6:	17 20       	jnz	$+48     	;abs 0x2826
            {
                if (crcOk)
    27f8:	0a 93       	cmp	#0,	r10	;r3 As==00
    27fa:	12 24       	jz	$+38     	;abs 0x2820
                {
                    // Reset the retry counter for ACKs
                    wbsl_number_of_retries = 0;
    27fc:	c2 43 39 2b 	mov.b	#0,	&0x2b39	;r3 As==00
                    // Total number of packets to be sent during the update process
                    totalPackets = RxBuffer[3] + (RxBuffer[4] << 8);
    2800:	5d 42 47 2b 	mov.b	&0x2b47,r13	;0x2b47
    2804:	5c 42 48 2b 	mov.b	&0x2b48,r12	;0x2b48
    2808:	47 18 0c 5c 	rpt #8 { rlax.w	r12		;
    280c:	0d 5c       	add	r12,	r13	;
    280e:	82 4d 36 2b 	mov	r13,	&0x2b36	;

                    //Reply Positive ACK
                    wbsl_replyAck(WBSL_LINK_SUCC, 0xFFFF);
    2812:	4c 48       	mov.b	r8,	r12	;
    2814:	3d 43       	mov	#-1,	r13	;r3 As==11
    2816:	89 12       	call	r9		;

                    initOk = 1;
    2818:	c2 48 38 2b 	mov.b	r8,	&0x2b38	;
//              WBSL_SUCC       Packet was received and written to memory
// *************************************************************************************************
uint8_t wbsl_receivePackets(void){
    uint8_t crcOk = 0;
    uint16_t tempCurrentPacket = 0;
    uint8_t retStatus = WBSL_LINK_FAIL;
    281c:	0c 43       	clr	r12		;
    281e:	37 3c       	jmp	$+112    	;abs 0x288e
                    initOk = 1;
                }
                else
                {
                    // CRC ERROR Reply Negative ACK
                    wbsl_replyAck(WBSL_LINK_FAIL, 0xFFFF);
    2820:	4c 4a       	mov.b	r10,	r12	;
    2822:	3d 43       	mov	#-1,	r13	;r3 As==11
    2824:	2c 3c       	jmp	$+90     	;abs 0x287e
    2826:	1d 42 34 2b 	mov	&0x2b34,r13	;0x2b34
                // Wait for a packet to be received or timeout
                //while(!(TA0CCTL1 & CCIFG));
                // Reset the timer
                //wbsl_resetTimer();

                if (crcOk)
    282a:	0a 93       	cmp	#0,	r10	;r3 As==00
    282c:	2d 24       	jz	$+92     	;abs 0x2888
                {
                    tempCurrentPacket = RxBuffer[4] + (RxBuffer[3] << 8 & 0xFF00);                    //
    282e:	5e 42 47 2b 	mov.b	&0x2b47,r14	;0x2b47
    2832:	47 18 0e 5e 	rpt #8 { rlax.w	r14		;
    2836:	5c 42 48 2b 	mov.b	&0x2b48,r12	;0x2b48
    283a:	0c 5e       	add	r14,	r12	;
                                                                                                      // is
                                                                                                      // being
                                                                                                      // sent

                    //Check that we are receiving the next packet needed
                    if (tempCurrentPacket == currentPacket)
    283c:	0c 9d       	cmp	r13,	r12	;
    283e:	21 20       	jnz	$+68     	;abs 0x2882
                    {
                        if (wbsl_writePacket() == WBSL_OPERATION_SUCC)
    2840:	b0 12 e8 23 	call	#9192		;#0x23e8
    2844:	1d 42 34 2b 	mov	&0x2b34,r13	;0x2b34
    2848:	5c 93       	cmp.b	#1,	r12	;r3 As==01
    284a:	18 20       	jnz	$+50     	;abs 0x287c
                        {
                            // Reset the retry counter for ACKs
                            wbsl_number_of_retries = 0;
    284c:	c2 43 39 2b 	mov.b	#0,	&0x2b39	;r3 As==00
                            //Reply Positive ACK
                            wbsl_replyAck(WBSL_LINK_SUCC, currentPacket);
    2850:	89 12       	call	r9		;
                            //Increment the currentPacket to keep track of which packets we have
                            // received
                            currentPacket++;
    2852:	1d 42 34 2b 	mov	&0x2b34,r13	;0x2b34
    2856:	1d 53       	inc	r13		;
    2858:	82 4d 34 2b 	mov	r13,	&0x2b34	;
                            wbsl_progress = (currentPacket * 100) / totalPackets;
    285c:	0c 4d       	mov	r13,	r12	;
    285e:	0c 5d       	add	r13,	r12	;
    2860:	0c 5d       	add	r13,	r12	;
    2862:	0e 4c       	mov	r12,	r14	;
    2864:	44 18 0e 5e 	rpt #5 { rlax.w	r14		;
    2868:	0c 5e       	add	r14,	r12	;
    286a:	0c 5d       	add	r13,	r12	;
    286c:	1d 42 36 2b 	mov	&0x2b36,r13	;0x2b36
    2870:	b0 12 38 2a 	call	#10808		;#0x2a38
    2874:	c2 4c 3b 2b 	mov.b	r12,	&0x2b3b	;
                            retStatus = WBSL_LINK_SUCC;
    2878:	1c 43       	mov	#1,	r12	;r3 As==01
    287a:	09 3c       	jmp	$+20     	;abs 0x288e
                        }
                        else
                        {
                            // Write Error ask AP to send package again.
                            wbsl_replyAck(WBSL_LINK_FAIL, currentPacket);
    287c:	4c 43       	clr.b	r12		;
    287e:	89 12       	call	r9		;
    2880:	cd 3f       	jmp	$-100    	;abs 0x281c
                    }
                    else
                    {
                        //There is an error on the flow of packets DEAL with it
                        //Reply Positive ACK for previous packet, in case AP didn't receive last ACK
                        wbsl_replyAck(WBSL_LINK_SUCC, currentPacket - 1);
    2882:	4c 48       	mov.b	r8,	r12	;
    2884:	3d 53       	add	#-1,	r13	;r3 As==11
    2886:	fb 3f       	jmp	$-8      	;abs 0x287e
                    }
                }
                else
                {
                    // CRC Error reply with a NACK
                    wbsl_replyAck(WBSL_LINK_FAIL, currentPacket);
    2888:	4c 4a       	mov.b	r10,	r12	;
    288a:	89 12       	call	r9		;
//              WBSL_SUCC       Packet was received and written to memory
// *************************************************************************************************
uint8_t wbsl_receivePackets(void){
    uint8_t crcOk = 0;
    uint16_t tempCurrentPacket = 0;
    uint8_t retStatus = WBSL_LINK_FAIL;
    288c:	0c 4a       	mov	r10,	r12	;
            }
        }
    }

    return retStatus;
}
    288e:	28 17       	popm	#3,	r10	;16-bit words
    2890:	30 41       	ret			

00002892 <start_wbsl>:
//              of the RFBSL and handles some of the state flags
// @param       none
// @return      none
// *************************************************************************************************
void start_wbsl(void)
{
    2892:	6a 15       	pushm	#7,	r10	;16-bit words
    2894:	39 40 03 00 	mov	#3,	r9	;
// @return      none
// *************************************************************************************************
#ifdef RAM_BASED_RFBSL
void display_wbsl(uint8_t line, uint8_t update)
{
    display_chars(LINE2, (uint8_t *)" RFBSL");
    2898:	36 40 00 21 	mov	#8448,	r6	;#0x2100
{
#ifdef RAM_BASED_RFBSL
    uint8_t max_link_attempts;
    max_link_attempts = 3;

    while (max_link_attempts >= 1 && !initOk)
    289c:	c2 93 38 2b 	cmp.b	#0,	&0x2b38	;r3 As==00
    28a0:	8c 20       	jnz	$+282    	;abs 0x29ba
    {
#endif
    //Reset all WBSL Variables
    reset_wbsl();
    28a2:	b0 12 c8 25 	call	#9672		;#0x25c8

    /* Select Interrupt edge for PA_PD and SYNC signal:
     * Interrupt Edge select register: 0 == Interrupt on Low to High transition.
     * SYNC word Detected
     */
    RF1AIES = 0;
    28a6:	82 43 34 0f 	mov	#0,	&0x0f34	;r3 As==00

#ifdef RAM_BASED_RFBSL
    // Clear LINE1 Display
    clear_display();
    28aa:	b0 12 36 21 	call	#8502		;#0x2136
// @return      none
// *************************************************************************************************
#ifdef RAM_BASED_RFBSL
void display_wbsl(uint8_t line, uint8_t update)
{
    display_chars(LINE2, (uint8_t *)" RFBSL");
    28ae:	6c 43       	mov.b	#2,	r12	;r3 As==10
    28b0:	3d 40 41 1e 	mov	#7745,	r13	;#0x1e41
    28b4:	86 12       	call	r6		;
    // Clear LINE1 Display
    clear_display();
    display_wbsl(LINE1, 0);

    // Turn on beeper icon to show activity
    display_symbol(LCD_ICON_BEEPER1, SEG_ON_BLINK_ON);
    28b6:	3a 40 64 20 	mov	#8292,	r10	;#0x2064
    28ba:	5c 43       	mov.b	#1,	r12	;r3 As==01
    28bc:	6d 43       	mov.b	#2,	r13	;r3 As==10
    28be:	8a 12       	call	r10		;
    display_symbol(LCD_ICON_BEEPER2, SEG_ON_BLINK_ON);
    28c0:	6c 43       	mov.b	#2,	r12	;r3 As==10
    28c2:	4d 4c       	mov.b	r12,	r13	;
    28c4:	8a 12       	call	r10		;
    display_symbol(LCD_ICON_BEEPER3, SEG_ON_BLINK_ON);
    28c6:	7c 40 03 00 	mov.b	#3,	r12	;
    28ca:	6d 43       	mov.b	#2,	r13	;r3 As==10
    28cc:	8a 12       	call	r10		;

#endif // RAM_BASED_RFBSL

    // Prepare radio for RF communication
    radio_reset();
    28ce:	38 40 50 21 	mov	#8528,	r8	;#0x2150
    28d2:	88 12       	call	r8		;
    // runs, the radio registers are already configured
    config_radio_wbsl();
#endif

#ifdef RAM_BASED_RFBSL
    display_symbol(LCD_SYMB_PERCENT, SEG_ON);
    28d4:	4c 43       	clr.b	r12		;
    28d6:	5d 43       	mov.b	#1,	r13	;r3 As==01
    28d8:	8a 12       	call	r10		;
#endif
    // Set WBSL smode
    sRFwbsl.mode = WBSL_SEARCHING;
    28da:	d2 43 92 2b 	mov.b	#1,	&0x2b92	;r3 As==01
    wbsl_flag = WBSL_STATUS_LINKING;
    28de:	d2 43 3e 2b 	mov.b	#1,	&0x2b3e	;r3 As==01

    // Try to link once only to save watch battery
    if (wbsl_link() == WBSL_LINK_SUCC)
    28e2:	b0 12 aa 26 	call	#9898		;#0x26aa
    28e6:	37 40 00 21 	mov	#8448,	r7	;#0x2100
    28ea:	5c 93       	cmp.b	#1,	r12	;r3 As==01
    28ec:	16 24       	jz	$+46     	;abs 0x291a
    }


#ifdef RAM_BASED_RFBSL
    // Clear icons
    display_symbol(LCD_ICON_BEEPER1, SEG_OFF_BLINK_OFF);
    28ee:	5c 43       	mov.b	#1,	r12	;r3 As==01
    28f0:	6d 42       	mov.b	#4,	r13	;r2 As==10
    28f2:	8a 12       	call	r10		;
    display_symbol(LCD_ICON_BEEPER2, SEG_OFF_BLINK_OFF);
    28f4:	6c 43       	mov.b	#2,	r12	;r3 As==10
    28f6:	6d 42       	mov.b	#4,	r13	;r2 As==10
    28f8:	8a 12       	call	r10		;
    display_symbol(LCD_ICON_BEEPER3, SEG_OFF_BLINK_OFF);
    28fa:	7c 40 03 00 	mov.b	#3,	r12	;
    28fe:	6d 42       	mov.b	#4,	r13	;r2 As==10
    2900:	8a 12       	call	r10		;

    // Powerdown radio
    radio_reset();
    2902:	b0 12 50 21 	call	#8528		;#0x2150

    // Clear the LCD segments
    display_symbol(LCD_SYMB_PERCENT, SEG_OFF);
    2906:	4c 43       	clr.b	r12		;
    2908:	4d 4c       	mov.b	r12,	r13	;
    290a:	8a 12       	call	r10		;

#endif  // RAM_BASED_RFBSL

    // Set WBSL state to OFF
    sRFwbsl.mode = WBSL_OFF;
    290c:	c2 43 92 2b 	mov.b	#0,	&0x2b92	;r3 As==00


    if (currentPacket >= totalPackets && initOk)
    2910:	92 92 36 2b 34 2b 	cmp	&0x2b36,&0x2b34	;0x2b36
    2916:	46 2c       	jc	$+142    	;abs 0x29a4
    2918:	4b 3c       	jmp	$+152    	;abs 0x29b0
    wbsl_flag = WBSL_STATUS_LINKING;

    // Try to link once only to save watch battery
    if (wbsl_link() == WBSL_LINK_SUCC)
    {
        wbsl_flag = WBSL_STATUS_LINKED;
    291a:	e2 43 3e 2b 	mov.b	#2,	&0x2b3e	;r3 As==10

#ifdef RAM_BASED_RFBSL
        // Turn off blinking on beeper icon to show that the device is linked
        display_symbol(LCD_ICON_BEEPER1, SEG_ON_BLINK_OFF);
    291e:	7d 40 03 00 	mov.b	#3,	r13	;
    2922:	8a 12       	call	r10		;
        display_symbol(LCD_ICON_BEEPER2, SEG_ON_BLINK_OFF);
    2924:	6c 43       	mov.b	#2,	r12	;r3 As==10
    2926:	7d 40 03 00 	mov.b	#3,	r13	;
    292a:	8a 12       	call	r10		;
        display_symbol(LCD_ICON_BEEPER3, SEG_ON_BLINK_OFF);
    292c:	7c 40 03 00 	mov.b	#3,	r12	;
    2930:	4d 4c       	mov.b	r12,	r13	;
    2932:	8a 12       	call	r10		;

        //Erase all memory main memory
        massEraseFlash();
    2934:	b0 12 36 25 	call	#9526		;#0x2536

#endif  // RAM_BASED_RFBSL

        while (currentPacket < totalPackets || !initOk)
        {
            if (wbsl_receivePackets() == WBSL_RECEIVE_SUCC)
    2938:	35 40 5e 27 	mov	#10078,	r5	;#0x275e
            {
#ifdef RAM_BASED_RFBSL
                if (wbsl_progress < 100)
                {
                    display_chars(LINE1, itoa(wbsl_progress, 2, 0));
    293c:	34 40 1e 20 	mov	#8222,	r4	;#0x201e
        //Erase all memory main memory
        massEraseFlash();

#endif  // RAM_BASED_RFBSL

        while (currentPacket < totalPackets || !initOk)
    2940:	92 92 36 2b 34 2b 	cmp	&0x2b36,&0x2b34	;0x2b36
    2946:	2a 2c       	jc	$+86     	;abs 0x299c
        {
            if (wbsl_receivePackets() == WBSL_RECEIVE_SUCC)
    2948:	85 12       	call	r5		;
    294a:	48 4c       	mov.b	r12,	r8	;
    294c:	5c 93       	cmp.b	#1,	r12	;r3 As==01
    294e:	19 20       	jnz	$+52     	;abs 0x2982
            {
#ifdef RAM_BASED_RFBSL
                if (wbsl_progress < 100)
    2950:	5d 42 3b 2b 	mov.b	&0x2b3b,r13	;0x2b3b
    2954:	7e 40 63 00 	mov.b	#99,	r14	;#0x0063
    2958:	4e 9d       	cmp.b	r13,	r14	;
    295a:	09 28       	jnc	$+20     	;abs 0x296e
                {
                    display_chars(LINE1, itoa(wbsl_progress, 2, 0));
    295c:	5c 42 3b 2b 	mov.b	&0x2b3b,r12	;0x2b3b
    2960:	0d 43       	clr	r13		;
    2962:	6e 43       	mov.b	#2,	r14	;r3 As==10
    2964:	4f 43       	clr.b	r15		;
    2966:	84 12       	call	r4		;
    2968:	0d 4c       	mov	r12,	r13	;
    296a:	4c 48       	mov.b	r8,	r12	;
    296c:	09 3c       	jmp	$+20     	;abs 0x2980
                }
                else
                {
                    display_chars(LINE1, (uint8_t *)"  ");
    296e:	3d 40 48 1e 	mov	#7752,	r13	;#0x1e48
    2972:	87 12       	call	r7		;
                    display_symbol(LCD_SYMB_PERCENT, SEG_OFF);
    2974:	4c 43       	clr.b	r12		;
    2976:	4d 4c       	mov.b	r12,	r13	;
    2978:	8a 12       	call	r10		;
                    display_chars(LINE2, (uint8_t *)"  DONE");
    297a:	6c 43       	mov.b	#2,	r12	;r3 As==10
    297c:	3d 40 4b 1e 	mov	#7755,	r13	;#0x1e4b
    2980:	87 12       	call	r7		;
                }
#endif
            }

            // If image has been completely received or the RFBSL was triggered to stop
            if (wbsl_flag == WBSL_TRIGGER_STOP || (currentPacket >= totalPackets && initOk))
    2982:	5c 42 3e 2b 	mov.b	&0x2b3e,r12	;0x2b3e
    2986:	7c 90 20 00 	cmp.b	#32,	r12	;#0x0020
    298a:	b1 27       	jz	$-156    	;abs 0x28ee
    298c:	92 92 36 2b 34 2b 	cmp	&0x2b36,&0x2b34	;0x2b36
    2992:	da 2b       	jnc	$-74     	;abs 0x2948
    2994:	c2 93 38 2b 	cmp.b	#0,	&0x2b38	;r3 As==00
    2998:	d3 27       	jz	$-88     	;abs 0x2940
    299a:	a9 3f       	jmp	$-172    	;abs 0x28ee
        //Erase all memory main memory
        massEraseFlash();

#endif  // RAM_BASED_RFBSL

        while (currentPacket < totalPackets || !initOk)
    299c:	c2 93 38 2b 	cmp.b	#0,	&0x2b38	;r3 As==00
    29a0:	d3 27       	jz	$-88     	;abs 0x2948
    29a2:	a5 3f       	jmp	$-180    	;abs 0x28ee

    // Set WBSL state to OFF
    sRFwbsl.mode = WBSL_OFF;


    if (currentPacket >= totalPackets && initOk)
    29a4:	c2 93 38 2b 	cmp.b	#0,	&0x2b38	;r3 As==00
    29a8:	03 24       	jz	$+8      	;abs 0x29b0
    {
#ifdef RAM_BASED_RFBSL
        // Reset the device so that the application which was just downloaded starts from the RESET
        // VECTOR
        PMMCTL0 = PMMPW | PMMSWBOR;  // generate BOR
    29aa:	b2 40 04 a5 20 01 	mov	#42244,	&0x0120	;#0xa504
    29b0:	79 53       	add.b	#-1,	r9	;r3 As==11
    29b2:	39 f0 ff 00 	and	#255,	r9	;#0x00ff
{
#ifdef RAM_BASED_RFBSL
    uint8_t max_link_attempts;
    max_link_attempts = 3;

    while (max_link_attempts >= 1 && !initOk)
    29b6:	09 93       	cmp	#0,	r9	;r3 As==00
    29b8:	71 23       	jnz	$-284    	;abs 0x289c
    // Link Failed, decrement link attempts to keep track of how many times we've tried
    max_link_attempts--;
}

#endif
}
    29ba:	64 17       	popm	#7,	r10	;16-bit words
    29bc:	30 41       	ret			

000029be <main>:
// @brief       Starting point of the RFBSL, calls the needed routines prior to starting
// communication
// @param       none
// @return      uint8_t  exit status
// *************************************************************************************************
int main(){
    29be:	2a 15       	pushm	#3,	r10	;16-bit words
    WDTCTL = WDTPW + WDTHOLD;        // Stop watchdog timer
    29c0:	b2 40 80 5a 5c 01 	mov	#23168,	&0x015c	;#0x5a80
        _BIS_SR(LPM4_bits + GIE);    // Wait until Button is pressed to go to ISR
    }
#endif

    //Disable all interrupts
    __disable_interrupt();
    29c6:	32 c2       	dint			
    29c8:	03 43       	nop			

    // Initialize clocks and the LCD only in the case of the RAM_BASED_RFBSL
    init_watch();
    29ca:	b0 12 64 25 	call	#9572		;#0x2564
// @return      none
// *************************************************************************************************
#ifdef RAM_BASED_RFBSL
void display_wbsl(uint8_t line, uint8_t update)
{
    display_chars(LINE2, (uint8_t *)" RFBSL");
    29ce:	6c 43       	mov.b	#2,	r12	;r3 As==10
    29d0:	3d 40 41 1e 	mov	#7745,	r13	;#0x1e41
    29d4:	b0 12 00 21 	call	#8448		;#0x2100

    while (1){

#ifdef RAM_BASED_RFBSL
        // Wait for AP/GUI to be ready to send update image
        wbsl_setTimer(CONV_MS_TO_TICKS(900));
    29d8:	38 40 f6 25 	mov	#9718,	r8	;#0x25f6
        while (!(TA0CCTL1 & CCIFG)) ;
        wbsl_resetTimer();
    29dc:	39 40 e6 25 	mov	#9702,	r9	;#0x25e6
#endif

        start_wbsl();
    29e0:	3a 40 92 28 	mov	#10386,	r10	;#0x2892

    while (1){

#ifdef RAM_BASED_RFBSL
        // Wait for AP/GUI to be ready to send update image
        wbsl_setTimer(CONV_MS_TO_TICKS(900));
    29e4:	3c 40 33 73 	mov	#29491,	r12	;#0x7333
    29e8:	88 12       	call	r8		;
        while (!(TA0CCTL1 & CCIFG)) ;
    29ea:	92 b3 44 03 	bit	#1,	&0x0344	;r3 As==01
    29ee:	fd 27       	jz	$-4      	;abs 0x29ea
        wbsl_resetTimer();
    29f0:	89 12       	call	r9		;
#endif

        start_wbsl();
    29f2:	8a 12       	call	r10		;

        // If no AP was found during discovery phase, reset the device
        PMMCTL0 = PMMPW | PMMSWBOR; // generate BOR
    29f4:	b2 40 04 a5 20 01 	mov	#42244,	&0x0120	;#0xa504

    }
    29fa:	f4 3f       	jmp	$-22     	;abs 0x29e4

000029fc <udivmodhi4>:
    29fc:	3b 40 11 00 	mov	#17,	r11	;#0x0011
    2a00:	1f 43       	mov	#1,	r15	;r3 As==01
    2a02:	0d 9c       	cmp	r12,	r13	;
    2a04:	09 2c       	jc	$+20     	;abs 0x2a18
    2a06:	3b 53       	add	#-1,	r11	;r3 As==11
    2a08:	0b 93       	cmp	#0,	r11	;r3 As==00
    2a0a:	05 24       	jz	$+12     	;abs 0x2a16
    2a0c:	0d 93       	cmp	#0,	r13	;r3 As==00
    2a0e:	04 38       	jl	$+10     	;abs 0x2a18
    2a10:	0d 5d       	rla	r13		;
    2a12:	0f 5f       	rla	r15		;
    2a14:	f6 3f       	jmp	$-18     	;abs 0x2a02
    2a16:	0f 4b       	mov	r11,	r15	;
    2a18:	0b 43       	clr	r11		;
    2a1a:	0f 93       	cmp	#0,	r15	;r3 As==00
    2a1c:	09 24       	jz	$+20     	;abs 0x2a30
    2a1e:	0c 9d       	cmp	r13,	r12	;
    2a20:	02 28       	jnc	$+6      	;abs 0x2a26
    2a22:	0c 8d       	sub	r13,	r12	;
    2a24:	0b df       	bis	r15,	r11	;
    2a26:	12 c3       	clrc			
    2a28:	0f 10       	rrc	r15		;
    2a2a:	12 c3       	clrc			
    2a2c:	0d 10       	rrc	r13		;
    2a2e:	f5 3f       	jmp	$-20     	;abs 0x2a1a
    2a30:	0e 93       	cmp	#0,	r14	;r3 As==00
    2a32:	01 20       	jnz	$+4      	;abs 0x2a36
    2a34:	0c 4b       	mov	r11,	r12	;
    2a36:	30 41       	ret			

00002a38 <__mspabi_divu>:
    2a38:	0e 43       	clr	r14		;
    2a3a:	b0 12 fc 29 	call	#10748		;#0x29fc
    2a3e:	30 41       	ret			

00002a40 <memcpy>:
    2a40:	0a 15       	pushm	#1,	r10	;16-bit words
    2a42:	0f 43       	clr	r15		;
    2a44:	0f 9e       	cmp	r14,	r15	;
    2a46:	08 24       	jz	$+18     	;abs 0x2a58
    2a48:	0a 4d       	mov	r13,	r10	;
    2a4a:	0a 5f       	add	r15,	r10	;
    2a4c:	0b 4c       	mov	r12,	r11	;
    2a4e:	0b 5f       	add	r15,	r11	;
    2a50:	eb 4a 00 00 	mov.b	@r10,	0(r11)	;
    2a54:	1f 53       	inc	r15		;
    2a56:	f6 3f       	jmp	$-18     	;abs 0x2a44
    2a58:	0a 17       	popm	#1,	r10	;16-bit words
    2a5a:	30 41       	ret			

00002a5c <memset>:
    2a5c:	0f 4c       	mov	r12,	r15	;
    2a5e:	0e 5c       	add	r12,	r14	;
    2a60:	0f 9e       	cmp	r14,	r15	;
    2a62:	04 24       	jz	$+10     	;abs 0x2a6c
    2a64:	cf 4d 00 00 	mov.b	r13,	0(r15)	;
    2a68:	1f 53       	inc	r15		;
    2a6a:	fa 3f       	jmp	$-10     	;abs 0x2a60
    2a6c:	30 41       	ret			

00002a6e <memmove>:
    2a6e:	0a 15       	pushm	#1,	r10	;16-bit words
    2a70:	0d 9c       	cmp	r12,	r13	;
    2a72:	10 2c       	jc	$+34     	;abs 0x2a94
    2a74:	0b 4d       	mov	r13,	r11	;
    2a76:	0b 5e       	add	r14,	r11	;
    2a78:	0c 9b       	cmp	r11,	r12	;
    2a7a:	0c 2c       	jc	$+26     	;abs 0x2a94
    2a7c:	0d 4e       	mov	r14,	r13	;
    2a7e:	3d 53       	add	#-1,	r13	;r3 As==11
    2a80:	3d 93       	cmp	#-1,	r13	;r3 As==11
    2a82:	13 24       	jz	$+40     	;abs 0x2aaa
    2a84:	0f 4d       	mov	r13,	r15	;
    2a86:	0f 8e       	sub	r14,	r15	;
    2a88:	0f 5b       	add	r11,	r15	;
    2a8a:	0a 4c       	mov	r12,	r10	;
    2a8c:	0a 5d       	add	r13,	r10	;
    2a8e:	ea 4f 00 00 	mov.b	@r15,	0(r10)	;
    2a92:	f5 3f       	jmp	$-20     	;abs 0x2a7e
    2a94:	0f 43       	clr	r15		;
    2a96:	0f 9e       	cmp	r14,	r15	;
    2a98:	08 24       	jz	$+18     	;abs 0x2aaa
    2a9a:	0a 4d       	mov	r13,	r10	;
    2a9c:	0a 5f       	add	r15,	r10	;
    2a9e:	0b 4c       	mov	r12,	r11	;
    2aa0:	0b 5f       	add	r15,	r11	;
    2aa2:	eb 4a 00 00 	mov.b	@r10,	0(r11)	;
    2aa6:	1f 53       	inc	r15		;
    2aa8:	f6 3f       	jmp	$-18     	;abs 0x2a96
    2aaa:	0a 17       	popm	#1,	r10	;16-bit words
    2aac:	30 41       	ret			

00002aae <__do_global_ctors_aux>:
    2aae:	0a 15       	pushm	#1,	r10	;16-bit words
    2ab0:	1c 42 58 1e 	mov	&0x1e58,r12	;0x1e58
    2ab4:	3c 93       	cmp	#-1,	r12	;r3 As==11
    2ab6:	08 24       	jz	$+18     	;abs 0x2ac8
    2ab8:	3a 40 58 1e 	mov	#7768,	r10	;#0x1e58
    2abc:	8c 12       	call	r12		;
    2abe:	3a 50 fe ff 	add	#65534,	r10	;#0xfffe
    2ac2:	2c 4a       	mov	@r10,	r12	;
    2ac4:	3c 93       	cmp	#-1,	r12	;r3 As==11
    2ac6:	fa 23       	jnz	$-10     	;abs 0x2abc
    2ac8:	0a 17       	popm	#1,	r10	;16-bit words
    2aca:	30 41       	ret			

00002acc <call___do_global_ctors_aux>:
    2acc:	30 41       	ret			

00002ace <__msp430_init>:
    2ace:	b0 12 5c 1f 	call	#8028		;#0x1f5c
    2ad2:	b0 12 ae 2a 	call	#10926		;#0x2aae
    2ad6:	b0 12 9c 1e 	call	#7836		;#0x1e9c
    2ada:	b0 12 90 1e 	call	#7824		;#0x1e90
    2ade:	30 41       	ret			

00002ae0 <__msp430_fini>:
    2ae0:	b0 12 a8 1e 	call	#7848		;#0x1ea8
    2ae4:	b0 12 0e 1f 	call	#7950		;#0x1f0e
    2ae8:	30 41       	ret			

Disassembly of section .MSP430.attributes:

00000000 <__stack-0x2d2e>:
   0:	41 16       	popm.a	#5,	r5	;20-bit words
   2:	00 00       	beq			
   4:	00 6d       	addc	r13,	r0	;
   6:	73 70       	.word	0x7073;	????
   8:	61 62       	addc.b	#4,	r1	;r2 As==10
   a:	69 00 01 0b 	mova	r0,	&592641	; 0x90b01
   e:	00 00       	beq			
  10:	00 04       	bra	@r4		;
  12:	02 06       	mova	@r6,	r2	;
  14:	01 08       	mova	@r8,	r1	;
  16:	01 00       	Address 0x00000016 is out of bounds.
.word	0xffff;	????
